
Thereminmin.elf:     file format elf32-avr

Sections:
Idx Name          Size      VMA       LMA       File off  Algn
  0 .data         00000000  00800100  00800100  00000f5a  2**0
                  ALLOC, LOAD, DATA
  1 .text         00000218  00000000  00000000  00000074  2**1
                  CONTENTS, ALLOC, LOAD, READONLY, CODE
  2 .bss          00000003  00800100  00800100  00000f5a  2**0
                  ALLOC
  3 .comment      0000005b  00000000  00000000  00000f5a  2**0
                  CONTENTS, READONLY
  4 .debug_aranges 00000110  00000000  00000000  00000fb5  2**0
                  CONTENTS, READONLY, DEBUGGING
  5 .debug_info   00001c57  00000000  00000000  000010c5  2**0
                  CONTENTS, READONLY, DEBUGGING
  6 .debug_abbrev 00000cb1  00000000  00000000  00002d1c  2**0
                  CONTENTS, READONLY, DEBUGGING
  7 .debug_line   00000904  00000000  00000000  000039cd  2**0
                  CONTENTS, READONLY, DEBUGGING
  8 .debug_frame  00000250  00000000  00000000  000042d4  2**2
                  CONTENTS, READONLY, DEBUGGING
  9 .debug_str    0000032c  00000000  00000000  00004524  2**0
                  CONTENTS, READONLY, DEBUGGING
 10 .debug_loc    000005e3  00000000  00000000  00004850  2**0
                  CONTENTS, READONLY, DEBUGGING
 11 .debug_ranges 000000c0  00000000  00000000  00004e33  2**0
                  CONTENTS, READONLY, DEBUGGING
 12 .text         00000004  00000ee2  00000ee2  00000f56  2**1
                  CONTENTS, ALLOC, LOAD, READONLY, CODE
 13 .note.gnu.avr.deviceinfo 0000003c  00000000  00000000  00004ef4  2**2
                  CONTENTS, READONLY, DEBUGGING
 14 .progmemx.data 0000001d  00000218  00000218  0000028c  2**0
                  CONTENTS, ALLOC, LOAD, READONLY, PROGMEMX
 15 .text.get_musical_value 000001b4  00000528  00000528  0000059c  2**1
                  CONTENTS, ALLOC, LOAD, READONLY, CODE
 16 .text.BUZZER_init 00000016  00000dfa  00000dfa  00000e6e  2**1
                  CONTENTS, ALLOC, LOAD, READONLY, CODE
 17 .text.BUZZER_change_frequency 00000008  00000ecc  00000ecc  00000f40  2**1
                  CONTENTS, ALLOC, LOAD, READONLY, CODE
 18 .text.lcd_strobe_lcd_e 00000026  00000cf6  00000cf6  00000d6a  2**1
                  CONTENTS, ALLOC, LOAD, READONLY, CODE
 19 .text.lcd_write_command 00000024  00000d1c  00000d1c  00000d90  2**1
                  CONTENTS, ALLOC, LOAD, READONLY, CODE
 20 .text.lcd_clear 0000001e  00000d86  00000d86  00000dfa  2**1
                  CONTENTS, ALLOC, LOAD, READONLY, CODE
 21 .text.lcd_init 00000044  00000b98  00000b98  00000c0c  2**1
                  CONTENTS, ALLOC, LOAD, READONLY, CODE
 22 .text.lcd_write_data 00000024  00000d40  00000d40  00000db4  2**1
                  CONTENTS, ALLOC, LOAD, READONLY, CODE
 23 .text.lcd_display_text 0000001a  00000de0  00000de0  00000e54  2**1
                  CONTENTS, ALLOC, LOAD, READONLY, CODE
 24 .progmemx.data 00000005  00000235  00000235  000002a9  2**0
                  CONTENTS, ALLOC, LOAD, READONLY, PROGMEMX
 25 .text.display_distance_on_lcd 0000008e  00000960  00000960  000009d4  2**1
                  CONTENTS, ALLOC, LOAD, READONLY, CODE
 26 .text.main    00000036  00000c60  00000c60  00000cd4  2**1
                  CONTENTS, ALLOC, LOAD, READONLY, CODE
 27 .text.wait    0000001e  00000da4  00000da4  00000e18  2**1
                  CONTENTS, ALLOC, LOAD, READONLY, CODE
 28 .text.__vector_10 00000016  00000e10  00000e10  00000e84  2**1
                  CONTENTS, ALLOC, LOAD, READONLY, CODE
 29 .text.__vector_8 0000008a  000009ee  000009ee  00000a62  2**1
                  CONTENTS, ALLOC, LOAD, READONLY, CODE
 30 .text.US_init_pins 0000001e  00000dc2  00000dc2  00000e36  2**1
                  CONTENTS, ALLOC, LOAD, READONLY, CODE
 31 .text.Timer_init 00000010  00000e60  00000e60  00000ed4  2**1
                  CONTENTS, ALLOC, LOAD, READONLY, CODE
 32 .text.US_trigger 00000016  00000e26  00000e26  00000e9a  2**1
                  CONTENTS, ALLOC, LOAD, READONLY, CODE
 33 .text.US_init 00000012  00000e3c  00000e3c  00000eb0  2**1
                  CONTENTS, ALLOC, LOAD, READONLY, CODE
 34 .bss.distance 00000004  00800103  00800103  00000f5a  2**0
                  ALLOC
 35 .bss.ticksOnTrigger 00000001  00800107  00800107  00000f5a  2**0
                  ALLOC
 36 .text.avrlibc.fplib 0000000e  00000e70  00000e70  00000ee4  2**1
                  CONTENTS, ALLOC, LOAD, READONLY, CODE
 37 .text.avrlibc.fplib 0000005e  00000af2  00000af2  00000b66  2**1
                  CONTENTS, ALLOC, LOAD, READONLY, CODE
 38 .text.avrlibc.fplib 0000007a  00000a78  00000a78  00000aec  2**1
                  CONTENTS, ALLOC, LOAD, READONLY, CODE
 39 .text.avrlibc.fplib 00000044  00000bdc  00000bdc  00000c50  2**1
                  CONTENTS, ALLOC, LOAD, READONLY, CODE
 40 .text.avrlibc.fplib 0000000e  00000e7e  00000e7e  00000ef2  2**1
                  CONTENTS, ALLOC, LOAD, READONLY, CODE
 41 .text.avrlibc.fplib 0000000a  00000ec2  00000ec2  00000f36  2**1
                  CONTENTS, ALLOC, LOAD, READONLY, CODE
 42 .text.avrlibc.fplib 00000008  00000ed4  00000ed4  00000f48  2**1
                  CONTENTS, ALLOC, LOAD, READONLY, CODE
 43 .text.avrlibc.fplib 000000d4  0000088c  0000088c  00000900  2**1
                  CONTENTS, ALLOC, LOAD, READONLY, CODE
 44 .text.avrlibc.fplib 00000048  00000b50  00000b50  00000bc4  2**1
                  CONTENTS, ALLOC, LOAD, READONLY, CODE
 45 .text.avrlibc.fplib 0000000c  00000eb6  00000eb6  00000f2a  2**1
                  CONTENTS, ALLOC, LOAD, READONLY, CODE
 46 .text.avrlibc.fplib 00000006  00000edc  00000edc  00000f50  2**1
                  CONTENTS, ALLOC, LOAD, READONLY, CODE
 47 .text.avrlibc.fplib 0000000e  00000e8c  00000e8c  00000f00  2**1
                  CONTENTS, ALLOC, LOAD, READONLY, CODE
 48 .text.avrlibc.fplib 0000000e  00000e9a  00000e9a  00000f0e  2**1
                  CONTENTS, ALLOC, LOAD, READONLY, CODE
 49 .text.avrlibc.fplib 00000022  00000d64  00000d64  00000dd8  2**1
                  CONTENTS, ALLOC, LOAD, READONLY, CODE
 50 .text.libgcc  00000012  00000e4e  00000e4e  00000ec2  2**1
                  CONTENTS, ALLOC, LOAD, READONLY, CODE
 51 .text.avrlibc 00000040  00000c20  00000c20  00000c94  2**1
                  CONTENTS, ALLOC, LOAD, READONLY, CODE
 52 .text.avrlibc 00000032  00000c96  00000c96  00000d0a  2**1
                  CONTENTS, ALLOC, LOAD, READONLY, CODE
 53 .text.avrlibc 0000002e  00000cc8  00000cc8  00000d3c  2**1
                  CONTENTS, ALLOC, LOAD, READONLY, CODE
 54 .text.avrlibc 000002ee  0000023a  0000023a  000002ae  2**1
                  CONTENTS, ALLOC, LOAD, READONLY, CODE
 55 .text.avrlibc 000001b0  000006dc  000006dc  00000750  2**1
                  CONTENTS, ALLOC, LOAD, READONLY, CODE
 56 .text.libgcc  0000000e  00000ea8  00000ea8  00000f1c  2**1
                  CONTENTS, ALLOC, LOAD, READONLY, CODE

Disassembly of section .text:

00000000 <__vectors>:
   0:	0c 94 e0 00 	jmp	0x1c0	; 0x1c0 <__ctors_end>
   4:	0c 94 71 07 	jmp	0xee2	; 0xee2 <__bad_interrupt>
   8:	0c 94 71 07 	jmp	0xee2	; 0xee2 <__bad_interrupt>
   c:	0c 94 71 07 	jmp	0xee2	; 0xee2 <__bad_interrupt>
  10:	0c 94 71 07 	jmp	0xee2	; 0xee2 <__bad_interrupt>
  14:	0c 94 71 07 	jmp	0xee2	; 0xee2 <__bad_interrupt>
  18:	0c 94 71 07 	jmp	0xee2	; 0xee2 <__bad_interrupt>
  1c:	0c 94 71 07 	jmp	0xee2	; 0xee2 <__bad_interrupt>
  20:	0c 94 f7 04 	jmp	0x9ee	; 0x9ee <__vector_8>
  24:	0c 94 71 07 	jmp	0xee2	; 0xee2 <__bad_interrupt>
  28:	0c 94 08 07 	jmp	0xe10	; 0xe10 <__vector_10>
  2c:	0c 94 71 07 	jmp	0xee2	; 0xee2 <__bad_interrupt>
  30:	0c 94 71 07 	jmp	0xee2	; 0xee2 <__bad_interrupt>
  34:	0c 94 71 07 	jmp	0xee2	; 0xee2 <__bad_interrupt>
  38:	0c 94 71 07 	jmp	0xee2	; 0xee2 <__bad_interrupt>
  3c:	0c 94 71 07 	jmp	0xee2	; 0xee2 <__bad_interrupt>
  40:	0c 94 71 07 	jmp	0xee2	; 0xee2 <__bad_interrupt>
  44:	0c 94 71 07 	jmp	0xee2	; 0xee2 <__bad_interrupt>
  48:	0c 94 71 07 	jmp	0xee2	; 0xee2 <__bad_interrupt>
  4c:	0c 94 71 07 	jmp	0xee2	; 0xee2 <__bad_interrupt>
  50:	0c 94 71 07 	jmp	0xee2	; 0xee2 <__bad_interrupt>
  54:	0c 94 71 07 	jmp	0xee2	; 0xee2 <__bad_interrupt>
  58:	0c 94 71 07 	jmp	0xee2	; 0xee2 <__bad_interrupt>
  5c:	0c 94 71 07 	jmp	0xee2	; 0xee2 <__bad_interrupt>
  60:	0c 94 71 07 	jmp	0xee2	; 0xee2 <__bad_interrupt>
  64:	0c 94 71 07 	jmp	0xee2	; 0xee2 <__bad_interrupt>
  68:	0c 94 71 07 	jmp	0xee2	; 0xee2 <__bad_interrupt>
  6c:	0c 94 71 07 	jmp	0xee2	; 0xee2 <__bad_interrupt>
  70:	0c 94 71 07 	jmp	0xee2	; 0xee2 <__bad_interrupt>
  74:	0c 94 71 07 	jmp	0xee2	; 0xee2 <__bad_interrupt>
  78:	0c 94 71 07 	jmp	0xee2	; 0xee2 <__bad_interrupt>
  7c:	0c 94 71 07 	jmp	0xee2	; 0xee2 <__bad_interrupt>
  80:	0c 94 71 07 	jmp	0xee2	; 0xee2 <__bad_interrupt>
  84:	0c 94 71 07 	jmp	0xee2	; 0xee2 <__bad_interrupt>
  88:	0c 94 71 07 	jmp	0xee2	; 0xee2 <__bad_interrupt>
  8c:	bd 02       	muls	r27, r29
  8e:	c7 02       	muls	r28, r23
  90:	d1 02       	muls	r29, r17
  92:	db 02       	muls	r29, r27
  94:	e5 02       	muls	r30, r21
  96:	ef 02       	muls	r30, r31
  98:	f9 02       	muls	r31, r25
  9a:	03 03       	mulsu	r16, r19
  9c:	0d 03       	fmul	r16, r21
  9e:	17 03       	mulsu	r17, r23
  a0:	21 03       	mulsu	r18, r17
  a2:	2b 03       	fmul	r18, r19
  a4:	35 03       	mulsu	r19, r21
  a6:	64 03       	mulsu	r22, r20
  a8:	4c 03       	fmul	r20, r20
  aa:	4e 03       	fmul	r20, r22
  ac:	50 03       	mulsu	r21, r16
  ae:	52 03       	mulsu	r21, r18
  b0:	54 03       	mulsu	r21, r20
  b2:	56 03       	mulsu	r21, r22
  b4:	58 03       	fmul	r21, r16
  b6:	5a 03       	fmul	r21, r18
  b8:	5c 03       	fmul	r21, r20
  ba:	5e 03       	fmul	r21, r22
  bc:	60 03       	mulsu	r22, r16
  be:	62 03       	mulsu	r22, r18

000000c0 <.dinit>:
  c0:	01 00       	.word	0x0001	; ????
  c2:	01 08       	sbc	r0, r1
  c4:	80 00       	.word	0x0080	; ????

000000c6 <__trampolines_end>:
  c6:	00 40       	sbci	r16, 0x00	; 0
  c8:	7a 10       	cpse	r7, r10
  ca:	f3 5a       	subi	r31, 0xA3	; 163
  cc:	00 a0       	ldd	r0, Z+32	; 0x20
  ce:	72 4e       	sbci	r23, 0xE2	; 226
  d0:	18 09       	sbc	r17, r8
  d2:	00 10       	cpse	r0, r0
  d4:	a5 d4       	rcall	.+2378   	; 0xa20 <__vector_8+0x32>
  d6:	e8 00       	.word	0x00e8	; ????
  d8:	00 e8       	ldi	r16, 0x80	; 128
  da:	76 48       	sbci	r23, 0x86	; 134
  dc:	17 00       	.word	0x0017	; ????
  de:	00 e4       	ldi	r16, 0x40	; 64
  e0:	0b 54       	subi	r16, 0x4B	; 75
  e2:	02 00       	.word	0x0002	; ????
  e4:	00 ca       	rjmp	.-3072   	; 0xfffff4e6 <__eeprom_end+0xff7ef4e6>
  e6:	9a 3b       	cpi	r25, 0xBA	; 186
  e8:	00 00       	nop
  ea:	00 e1       	ldi	r16, 0x10	; 16
  ec:	f5 05       	cpc	r31, r5
  ee:	00 00       	nop
  f0:	80 96       	adiw	r24, 0x20	; 32
  f2:	98 00       	.word	0x0098	; ????
  f4:	00 00       	nop
  f6:	40 42       	sbci	r20, 0x20	; 32
  f8:	0f 00       	.word	0x000f	; ????
  fa:	00 00       	nop
  fc:	a0 86       	std	Z+8, r10	; 0x08
  fe:	01 00       	.word	0x0001	; ????
 100:	00 00       	nop
 102:	10 27       	eor	r17, r16
 104:	00 00       	nop
 106:	00 00       	nop
 108:	e8 03       	fmulsu	r22, r16
 10a:	00 00       	nop
 10c:	00 00       	nop
 10e:	64 00       	.word	0x0064	; ????
 110:	00 00       	nop
 112:	00 00       	nop
 114:	0a 00       	.word	0x000a	; ????
 116:	00 00       	nop
 118:	00 00       	nop
 11a:	01 00       	.word	0x0001	; ????
 11c:	00 00       	nop
 11e:	00 00       	nop
 120:	2c 76       	andi	r18, 0x6C	; 108
 122:	d8 88       	ldd	r13, Y+16	; 0x10
 124:	dc 67       	ori	r29, 0x7C	; 124
 126:	4f 08       	sbc	r4, r15
 128:	23 df       	rcall	.-442    	; 0xffffff70 <__eeprom_end+0xff7eff70>
 12a:	c1 df       	rcall	.-126    	; 0xae <__SREG__+0x6f>
 12c:	ae 59       	subi	r26, 0x9E	; 158
 12e:	e1 b1       	in	r30, 0x01	; 1
 130:	b7 96       	adiw	r30, 0x27	; 39
 132:	e5 e3       	ldi	r30, 0x35	; 53
 134:	e4 53       	subi	r30, 0x34	; 52
 136:	c6 3a       	cpi	r28, 0xA6	; 166
 138:	e6 51       	subi	r30, 0x16	; 22
 13a:	99 76       	andi	r25, 0x69	; 105
 13c:	96 e8       	ldi	r25, 0x86	; 134
 13e:	e6 c2       	rjmp	.+1484   	; 0x70c <__ftoa_engine+0x30>
 140:	84 26       	eor	r8, r20
 142:	eb 89       	ldd	r30, Y+19	; 0x13
 144:	8c 9b       	sbis	0x11, 4	; 17
 146:	62 ed       	ldi	r22, 0xD2	; 210
 148:	40 7c       	andi	r20, 0xC0	; 192
 14a:	6f fc       	.word	0xfc6f	; ????
 14c:	ef bc       	out	0x2f, r14	; 47
 14e:	9c 9f       	mul	r25, r28
 150:	40 f2       	brcs	.-112    	; 0xe2 <__trampolines_end+0x1c>
 152:	ba a5       	ldd	r27, Y+42	; 0x2a
 154:	6f a5       	ldd	r22, Y+47	; 0x2f
 156:	f4 90       	lpm	r15, Z
 158:	05 5a       	subi	r16, 0xA5	; 165
 15a:	2a f7       	brpl	.-54     	; 0x126 <__trampolines_end+0x60>
 15c:	5c 93       	st	X, r21
 15e:	6b 6c       	ori	r22, 0xCB	; 203
 160:	f9 67       	ori	r31, 0x79	; 121
 162:	6d c1       	rjmp	.+730    	; 0x43e <__LOCK_REGION_LENGTH__+0x3e>
 164:	1b fc       	.word	0xfc1b	; ????
 166:	e0 e4       	ldi	r30, 0x40	; 64
 168:	0d 47       	sbci	r16, 0x7D	; 125
 16a:	fe f5       	brtc	.+126    	; 0x1ea <__do_copy_data+0x1e>
 16c:	20 e6       	ldi	r18, 0x60	; 96
 16e:	b5 00       	.word	0x00b5	; ????
 170:	d0 ed       	ldi	r29, 0xD0	; 208
 172:	90 2e       	mov	r9, r16
 174:	03 00       	.word	0x0003	; ????
 176:	94 35       	cpi	r25, 0x54	; 84
 178:	77 05       	cpc	r23, r7
 17a:	00 80       	ld	r0, Z
 17c:	84 1e       	adc	r8, r20
 17e:	08 00       	.word	0x0008	; ????
 180:	00 20       	and	r0, r0
 182:	4e 0a       	sbc	r4, r30
 184:	00 00       	nop
 186:	00 c8       	rjmp	.-4096   	; 0xfffff188 <__eeprom_end+0xff7ef188>
 188:	0c 33       	cpi	r16, 0x3C	; 60
 18a:	33 33       	cpi	r19, 0x33	; 51
 18c:	33 0f       	add	r19, r19
 18e:	98 6e       	ori	r25, 0xE8	; 232
 190:	12 83       	std	Z+2, r17	; 0x02
 192:	11 41       	sbci	r17, 0x11	; 17
 194:	ef 8d       	ldd	r30, Y+31	; 0x1f
 196:	21 14       	cp	r2, r1
 198:	89 3b       	cpi	r24, 0xB9	; 185
 19a:	e6 55       	subi	r30, 0x56	; 86
 19c:	16 cf       	rjmp	.-468    	; 0xffffffca <__eeprom_end+0xff7effca>
 19e:	fe e6       	ldi	r31, 0x6E	; 110
 1a0:	db 18       	sub	r13, r11
 1a2:	d1 84       	ldd	r13, Z+9	; 0x09
 1a4:	4b 38       	cpi	r20, 0x8B	; 139
 1a6:	1b f7       	brvc	.-58     	; 0x16e <__trampolines_end+0xa8>
 1a8:	7c 1d       	adc	r23, r12
 1aa:	90 1d       	adc	r25, r0
 1ac:	a4 bb       	out	0x14, r26	; 20
 1ae:	e4 24       	eor	r14, r4
 1b0:	20 32       	cpi	r18, 0x20	; 32
 1b2:	84 72       	andi	r24, 0x24	; 36
 1b4:	5e 22       	and	r5, r30
 1b6:	81 00       	.word	0x0081	; ????
 1b8:	c9 f1       	breq	.+114    	; 0x22c <_etext+0x14>
 1ba:	24 ec       	ldi	r18, 0xC4	; 196
 1bc:	a1 e5       	ldi	r26, 0x51	; 81
 1be:	3d 27       	eor	r19, r29

000001c0 <__ctors_end>:
 1c0:	11 24       	eor	r1, r1
 1c2:	1f be       	out	0x3f, r1	; 63
 1c4:	cf ef       	ldi	r28, 0xFF	; 255
 1c6:	d0 e1       	ldi	r29, 0x10	; 16
 1c8:	de bf       	out	0x3e, r29	; 62
 1ca:	cd bf       	out	0x3d, r28	; 61

000001cc <__do_copy_data>:
 1cc:	e0 ec       	ldi	r30, 0xC0	; 192
 1ce:	f0 e0       	ldi	r31, 0x00	; 0
 1d0:	40 e0       	ldi	r20, 0x00	; 0
 1d2:	19 c0       	rjmp	.+50     	; 0x206 <__do_clear_bss+0x8>
 1d4:	b7 91       	elpm	r27, Z+
 1d6:	a7 91       	elpm	r26, Z+
 1d8:	37 91       	elpm	r19, Z+
 1da:	27 91       	elpm	r18, Z+
 1dc:	07 91       	elpm	r16, Z+
 1de:	07 fd       	sbrc	r16, 7
 1e0:	0e c0       	rjmp	.+28     	; 0x1fe <__do_clear_bss>
 1e2:	97 91       	elpm	r25, Z+
 1e4:	87 91       	elpm	r24, Z+
 1e6:	ef 01       	movw	r28, r30
 1e8:	f9 2f       	mov	r31, r25
 1ea:	e8 2f       	mov	r30, r24
 1ec:	0b bf       	out	0x3b, r16	; 59
 1ee:	07 90       	elpm	r0, Z+
 1f0:	0d 92       	st	X+, r0
 1f2:	a2 17       	cp	r26, r18
 1f4:	b3 07       	cpc	r27, r19
 1f6:	d9 f7       	brne	.-10     	; 0x1ee <__do_copy_data+0x22>
 1f8:	fe 01       	movw	r30, r28
 1fa:	1b be       	out	0x3b, r1	; 59
 1fc:	04 c0       	rjmp	.+8      	; 0x206 <__do_clear_bss+0x8>

000001fe <__do_clear_bss>:
 1fe:	1d 92       	st	X+, r1
 200:	a2 17       	cp	r26, r18
 202:	b3 07       	cpc	r27, r19
 204:	e1 f7       	brne	.-8      	; 0x1fe <__do_clear_bss>
 206:	e5 3c       	cpi	r30, 0xC5	; 197
 208:	f4 07       	cpc	r31, r20
 20a:	21 f7       	brne	.-56     	; 0x1d4 <__do_copy_data+0x8>
 20c:	0e 94 30 06 	call	0xc60	; 0xc60 <main>
 210:	0c 94 0a 01 	jmp	0x214	; 0x214 <_exit>

00000214 <_exit>:
 214:	f8 94       	cli

00000216 <__stop_program>:
 216:	ff cf       	rjmp	.-2      	; 0x216 <__stop_program>

Disassembly of section .text:

00000ee2 <__bad_interrupt>:
 ee2:	0c 94 00 00 	jmp	0	; 0x0 <__TEXT_REGION_ORIGIN__>

Disassembly of section .text.get_musical_value:

00000528 <get_musical_value>:
 *  Author: ZimonIsHim
 */ 

const char *noteToPlay; // extern from headerfile

char get_musical_value(double distance) {
 528:	cf 92       	push	r12
 52a:	df 92       	push	r13
 52c:	ef 92       	push	r14
 52e:	ff 92       	push	r15
 530:	0f 93       	push	r16
 532:	1f 93       	push	r17
 534:	6b 01       	movw	r12, r22
 536:	7c 01       	movw	r14, r24
	int notes_to_increment;
	
	if (distance > 50) { // If distance greater than 50 we return silence.
 538:	20 e0       	ldi	r18, 0x00	; 0
 53a:	30 e0       	ldi	r19, 0x00	; 0
 53c:	48 e4       	ldi	r20, 0x48	; 72
 53e:	52 e4       	ldi	r21, 0x42	; 66
 540:	0e 94 61 07 	call	0xec2	; 0xec2 <__gesf2>
 544:	18 16       	cp	r1, r24
 546:	0c f4       	brge	.+2      	; 0x54a <get_musical_value+0x22>
 548:	c1 c0       	rjmp	.+386    	; 0x6cc <get_musical_value+0x1a4>
		return (char)0;
	} else {
		notes_to_increment = distance / (50 / 12);
 54a:	20 e0       	ldi	r18, 0x00	; 0
 54c:	30 e0       	ldi	r19, 0x00	; 0
 54e:	40 e8       	ldi	r20, 0x80	; 128
 550:	5e e3       	ldi	r21, 0x3E	; 62
 552:	c7 01       	movw	r24, r14
 554:	b6 01       	movw	r22, r12
 556:	0e 94 6a 07 	call	0xed4	; 0xed4 <__mulsf3>
 55a:	0e 94 38 07 	call	0xe70	; 0xe70 <__fixsfsi>
		
		switch(notes_to_increment) {
 55e:	8b 01       	movw	r16, r22
 560:	07 2e       	mov	r0, r23
 562:	00 0c       	add	r0, r0
 564:	22 0b       	sbc	r18, r18
 566:	33 0b       	sbc	r19, r19
 568:	0d 30       	cpi	r16, 0x0D	; 13
 56a:	11 05       	cpc	r17, r1
 56c:	08 f0       	brcs	.+2      	; 0x570 <get_musical_value+0x48>
 56e:	86 c0       	rjmp	.+268    	; 0x67c <get_musical_value+0x154>
 570:	f8 01       	movw	r30, r16
 572:	ea 5b       	subi	r30, 0xBA	; 186
 574:	ff 4f       	sbci	r31, 0xFF	; 255
 576:	0c 94 27 07 	jmp	0xe4e	; 0xe4e <__tablejump2__>
			case 0:
			noteToPlay = "A";
 57a:	28 e1       	ldi	r18, 0x18	; 24
 57c:	32 e0       	ldi	r19, 0x02	; 2
 57e:	40 e0       	ldi	r20, 0x00	; 0
 580:	20 93 00 01 	sts	0x0100, r18	; 0x800100 <__DATA_REGION_ORIGIN__>
 584:	30 93 01 01 	sts	0x0101, r19	; 0x800101 <__DATA_REGION_ORIGIN__+0x1>
 588:	40 93 02 01 	sts	0x0102, r20	; 0x800102 <__DATA_REGION_ORIGIN__+0x2>
			break;
 58c:	77 c0       	rjmp	.+238    	; 0x67c <get_musical_value+0x154>
			case 1:
			noteToPlay = "A#";
 58e:	2a e1       	ldi	r18, 0x1A	; 26
 590:	32 e0       	ldi	r19, 0x02	; 2
 592:	40 e0       	ldi	r20, 0x00	; 0
 594:	20 93 00 01 	sts	0x0100, r18	; 0x800100 <__DATA_REGION_ORIGIN__>
 598:	30 93 01 01 	sts	0x0101, r19	; 0x800101 <__DATA_REGION_ORIGIN__+0x1>
 59c:	40 93 02 01 	sts	0x0102, r20	; 0x800102 <__DATA_REGION_ORIGIN__+0x2>
			break;
 5a0:	6d c0       	rjmp	.+218    	; 0x67c <get_musical_value+0x154>
			case 2:
			noteToPlay = "B";
 5a2:	2d e1       	ldi	r18, 0x1D	; 29
 5a4:	32 e0       	ldi	r19, 0x02	; 2
 5a6:	40 e0       	ldi	r20, 0x00	; 0
 5a8:	20 93 00 01 	sts	0x0100, r18	; 0x800100 <__DATA_REGION_ORIGIN__>
 5ac:	30 93 01 01 	sts	0x0101, r19	; 0x800101 <__DATA_REGION_ORIGIN__+0x1>
 5b0:	40 93 02 01 	sts	0x0102, r20	; 0x800102 <__DATA_REGION_ORIGIN__+0x2>
			break;
 5b4:	63 c0       	rjmp	.+198    	; 0x67c <get_musical_value+0x154>
			case 3:
			noteToPlay = "C";
 5b6:	2f e1       	ldi	r18, 0x1F	; 31
 5b8:	32 e0       	ldi	r19, 0x02	; 2
 5ba:	40 e0       	ldi	r20, 0x00	; 0
 5bc:	20 93 00 01 	sts	0x0100, r18	; 0x800100 <__DATA_REGION_ORIGIN__>
 5c0:	30 93 01 01 	sts	0x0101, r19	; 0x800101 <__DATA_REGION_ORIGIN__+0x1>
 5c4:	40 93 02 01 	sts	0x0102, r20	; 0x800102 <__DATA_REGION_ORIGIN__+0x2>
			break;
 5c8:	59 c0       	rjmp	.+178    	; 0x67c <get_musical_value+0x154>
			case 4:
			noteToPlay = "C#";
 5ca:	21 e2       	ldi	r18, 0x21	; 33
 5cc:	32 e0       	ldi	r19, 0x02	; 2
 5ce:	40 e0       	ldi	r20, 0x00	; 0
 5d0:	20 93 00 01 	sts	0x0100, r18	; 0x800100 <__DATA_REGION_ORIGIN__>
 5d4:	30 93 01 01 	sts	0x0101, r19	; 0x800101 <__DATA_REGION_ORIGIN__+0x1>
 5d8:	40 93 02 01 	sts	0x0102, r20	; 0x800102 <__DATA_REGION_ORIGIN__+0x2>
			break;
 5dc:	4f c0       	rjmp	.+158    	; 0x67c <get_musical_value+0x154>
			case 5:
			noteToPlay = "D";
 5de:	24 e2       	ldi	r18, 0x24	; 36
 5e0:	32 e0       	ldi	r19, 0x02	; 2
 5e2:	40 e0       	ldi	r20, 0x00	; 0
 5e4:	20 93 00 01 	sts	0x0100, r18	; 0x800100 <__DATA_REGION_ORIGIN__>
 5e8:	30 93 01 01 	sts	0x0101, r19	; 0x800101 <__DATA_REGION_ORIGIN__+0x1>
 5ec:	40 93 02 01 	sts	0x0102, r20	; 0x800102 <__DATA_REGION_ORIGIN__+0x2>
			break;
 5f0:	45 c0       	rjmp	.+138    	; 0x67c <get_musical_value+0x154>
			case 6:
			noteToPlay = "D#";
 5f2:	26 e2       	ldi	r18, 0x26	; 38
 5f4:	32 e0       	ldi	r19, 0x02	; 2
 5f6:	40 e0       	ldi	r20, 0x00	; 0
 5f8:	20 93 00 01 	sts	0x0100, r18	; 0x800100 <__DATA_REGION_ORIGIN__>
 5fc:	30 93 01 01 	sts	0x0101, r19	; 0x800101 <__DATA_REGION_ORIGIN__+0x1>
 600:	40 93 02 01 	sts	0x0102, r20	; 0x800102 <__DATA_REGION_ORIGIN__+0x2>
			break;
 604:	3b c0       	rjmp	.+118    	; 0x67c <get_musical_value+0x154>
			case 7:
			noteToPlay = "E";
 606:	29 e2       	ldi	r18, 0x29	; 41
 608:	32 e0       	ldi	r19, 0x02	; 2
 60a:	40 e0       	ldi	r20, 0x00	; 0
 60c:	20 93 00 01 	sts	0x0100, r18	; 0x800100 <__DATA_REGION_ORIGIN__>
 610:	30 93 01 01 	sts	0x0101, r19	; 0x800101 <__DATA_REGION_ORIGIN__+0x1>
 614:	40 93 02 01 	sts	0x0102, r20	; 0x800102 <__DATA_REGION_ORIGIN__+0x2>
			break;
 618:	31 c0       	rjmp	.+98     	; 0x67c <get_musical_value+0x154>
			case 8:
			noteToPlay = "F";
 61a:	2b e2       	ldi	r18, 0x2B	; 43
 61c:	32 e0       	ldi	r19, 0x02	; 2
 61e:	40 e0       	ldi	r20, 0x00	; 0
 620:	20 93 00 01 	sts	0x0100, r18	; 0x800100 <__DATA_REGION_ORIGIN__>
 624:	30 93 01 01 	sts	0x0101, r19	; 0x800101 <__DATA_REGION_ORIGIN__+0x1>
 628:	40 93 02 01 	sts	0x0102, r20	; 0x800102 <__DATA_REGION_ORIGIN__+0x2>
			break;
 62c:	27 c0       	rjmp	.+78     	; 0x67c <get_musical_value+0x154>
			case 9:
			noteToPlay = "F#";
 62e:	2d e2       	ldi	r18, 0x2D	; 45
 630:	32 e0       	ldi	r19, 0x02	; 2
 632:	40 e0       	ldi	r20, 0x00	; 0
 634:	20 93 00 01 	sts	0x0100, r18	; 0x800100 <__DATA_REGION_ORIGIN__>
 638:	30 93 01 01 	sts	0x0101, r19	; 0x800101 <__DATA_REGION_ORIGIN__+0x1>
 63c:	40 93 02 01 	sts	0x0102, r20	; 0x800102 <__DATA_REGION_ORIGIN__+0x2>
			break;
 640:	1d c0       	rjmp	.+58     	; 0x67c <get_musical_value+0x154>
			case 10:
			noteToPlay = "G";
 642:	20 e3       	ldi	r18, 0x30	; 48
 644:	32 e0       	ldi	r19, 0x02	; 2
 646:	40 e0       	ldi	r20, 0x00	; 0
 648:	20 93 00 01 	sts	0x0100, r18	; 0x800100 <__DATA_REGION_ORIGIN__>
 64c:	30 93 01 01 	sts	0x0101, r19	; 0x800101 <__DATA_REGION_ORIGIN__+0x1>
 650:	40 93 02 01 	sts	0x0102, r20	; 0x800102 <__DATA_REGION_ORIGIN__+0x2>
			break;
 654:	13 c0       	rjmp	.+38     	; 0x67c <get_musical_value+0x154>
			case 11:
			noteToPlay = "G#";
 656:	22 e3       	ldi	r18, 0x32	; 50
 658:	32 e0       	ldi	r19, 0x02	; 2
 65a:	40 e0       	ldi	r20, 0x00	; 0
 65c:	20 93 00 01 	sts	0x0100, r18	; 0x800100 <__DATA_REGION_ORIGIN__>
 660:	30 93 01 01 	sts	0x0101, r19	; 0x800101 <__DATA_REGION_ORIGIN__+0x1>
 664:	40 93 02 01 	sts	0x0102, r20	; 0x800102 <__DATA_REGION_ORIGIN__+0x2>
			break;
 668:	09 c0       	rjmp	.+18     	; 0x67c <get_musical_value+0x154>
			case 12:
			noteToPlay = "A";
 66a:	28 e1       	ldi	r18, 0x18	; 24
 66c:	32 e0       	ldi	r19, 0x02	; 2
 66e:	40 e0       	ldi	r20, 0x00	; 0
 670:	20 93 00 01 	sts	0x0100, r18	; 0x800100 <__DATA_REGION_ORIGIN__>
 674:	30 93 01 01 	sts	0x0101, r19	; 0x800101 <__DATA_REGION_ORIGIN__+0x1>
 678:	40 93 02 01 	sts	0x0102, r20	; 0x800102 <__DATA_REGION_ORIGIN__+0x2>
		}
	}
	
	int value_to_return = 0;
	
	switch(notes_to_increment) {
 67c:	cb 01       	movw	r24, r22
 67e:	77 0f       	add	r23, r23
 680:	aa 0b       	sbc	r26, r26
 682:	bb 0b       	sbc	r27, r27
 684:	8d 30       	cpi	r24, 0x0D	; 13
 686:	91 05       	cpc	r25, r1
 688:	28 f4       	brcc	.+10     	; 0x694 <get_musical_value+0x16c>
 68a:	fc 01       	movw	r30, r24
 68c:	ed 5a       	subi	r30, 0xAD	; 173
 68e:	ff 4f       	sbci	r31, 0xFF	; 255
 690:	0c 94 27 07 	jmp	0xe4e	; 0xe4e <__tablejump2__>
			noteToPlay = "A";
			break;
		}
	}
	
	int value_to_return = 0;
 694:	80 e0       	ldi	r24, 0x00	; 0
 696:	1b c0       	rjmp	.+54     	; 0x6ce <get_musical_value+0x1a6>
	switch(notes_to_increment) {
		case 0: // A
		value_to_return = 140;
		break;
		case 1: // A#
		value_to_return = 133;
 698:	85 e8       	ldi	r24, 0x85	; 133
		break;
 69a:	19 c0       	rjmp	.+50     	; 0x6ce <get_musical_value+0x1a6>
		case 2: // B
		value_to_return = 125;
 69c:	8d e7       	ldi	r24, 0x7D	; 125
		break;
 69e:	17 c0       	rjmp	.+46     	; 0x6ce <get_musical_value+0x1a6>
		case 3: // C
		value_to_return = 118;
 6a0:	86 e7       	ldi	r24, 0x76	; 118
		break;
 6a2:	15 c0       	rjmp	.+42     	; 0x6ce <get_musical_value+0x1a6>
		case 4: // C#
		value_to_return = 111;
 6a4:	8f e6       	ldi	r24, 0x6F	; 111
		break;
 6a6:	13 c0       	rjmp	.+38     	; 0x6ce <get_musical_value+0x1a6>
		case 5: // D
		value_to_return = 103;
 6a8:	87 e6       	ldi	r24, 0x67	; 103
		break;
 6aa:	11 c0       	rjmp	.+34     	; 0x6ce <get_musical_value+0x1a6>
		case 6: // D#
		value_to_return = 99;
 6ac:	83 e6       	ldi	r24, 0x63	; 99
		break;
 6ae:	0f c0       	rjmp	.+30     	; 0x6ce <get_musical_value+0x1a6>
		case 7: // E
		value_to_return = 93;
 6b0:	8d e5       	ldi	r24, 0x5D	; 93
		break;
 6b2:	0d c0       	rjmp	.+26     	; 0x6ce <get_musical_value+0x1a6>
		case 8: // F
		value_to_return = 89;
 6b4:	89 e5       	ldi	r24, 0x59	; 89
		break;
 6b6:	0b c0       	rjmp	.+22     	; 0x6ce <get_musical_value+0x1a6>
		case 9: // F#
		value_to_return = 84;
 6b8:	84 e5       	ldi	r24, 0x54	; 84
		break;
 6ba:	09 c0       	rjmp	.+18     	; 0x6ce <get_musical_value+0x1a6>
		case 10: // G
		value_to_return = 78;
 6bc:	8e e4       	ldi	r24, 0x4E	; 78
		break;
 6be:	07 c0       	rjmp	.+14     	; 0x6ce <get_musical_value+0x1a6>
		case 11: // G#
		value_to_return = 74;
 6c0:	8a e4       	ldi	r24, 0x4A	; 74
		break;
 6c2:	05 c0       	rjmp	.+10     	; 0x6ce <get_musical_value+0x1a6>
		case 12: // A
		value_to_return = 70;
 6c4:	86 e4       	ldi	r24, 0x46	; 70
		break;
 6c6:	03 c0       	rjmp	.+6      	; 0x6ce <get_musical_value+0x1a6>
	
	int value_to_return = 0;
	
	switch(notes_to_increment) {
		case 0: // A
		value_to_return = 140;
 6c8:	8c e8       	ldi	r24, 0x8C	; 140
		case 12: // A
		value_to_return = 70;
		break;
	}
	
	return value_to_return;
 6ca:	01 c0       	rjmp	.+2      	; 0x6ce <get_musical_value+0x1a6>

char get_musical_value(double distance) {
	int notes_to_increment;
	
	if (distance > 50) { // If distance greater than 50 we return silence.
		return (char)0;
 6cc:	80 e0       	ldi	r24, 0x00	; 0
	}
	
	return value_to_return;
	
	// return (char)(140 - 10 * notes_to_increment); // Old calculation (inaccurate).
 6ce:	1f 91       	pop	r17
 6d0:	0f 91       	pop	r16
 6d2:	ff 90       	pop	r15
 6d4:	ef 90       	pop	r14
 6d6:	df 90       	pop	r13
 6d8:	cf 90       	pop	r12
 6da:	08 95       	ret

Disassembly of section .text.BUZZER_init:

00000dfa <BUZZER_init>:
#include <avr/io.h>

// Initialize timer 1: fast PWM at pin PORTB.5
void BUZZER_init( void )
{
	DDRB = 0xFF;					// set PORTB for compare output
 dfa:	8f ef       	ldi	r24, 0xFF	; 255
 dfc:	87 bb       	out	0x17, r24	; 23
	OCR1A = 140;					//
 dfe:	8c e8       	ldi	r24, 0x8C	; 140
 e00:	90 e0       	ldi	r25, 0x00	; 0
 e02:	9b bd       	out	0x2b, r25	; 43
 e04:	8a bd       	out	0x2a, r24	; 42
	TCCR1A = 0b01101011;		// compare output OC1A,OC1B,OC1C
 e06:	8b e6       	ldi	r24, 0x6B	; 107
 e08:	8f bd       	out	0x2f, r24	; 47
	TCCR1B = 0b00011011;		// fast PWM 8 bit, prescaler=64, RUN
 e0a:	8b e1       	ldi	r24, 0x1B	; 27
 e0c:	8e bd       	out	0x2e, r24	; 46
 e0e:	08 95       	ret

Disassembly of section .text.BUZZER_change_frequency:

00000ecc <BUZZER_change_frequency>:
}

void BUZZER_change_frequency(char frequency) {
	OCR1A = frequency;
 ecc:	90 e0       	ldi	r25, 0x00	; 0
 ece:	9b bd       	out	0x2b, r25	; 43
 ed0:	8a bd       	out	0x2a, r24	; 42
 ed2:	08 95       	ret

Disassembly of section .text.lcd_strobe_lcd_e:

00000cf6 <lcd_strobe_lcd_e>:
#include <util/delay.h>
#include <avr/interrupt.h>
#include <xc.h>

void lcd_strobe_lcd_e(void) {
	PORTC |= (1<<LCD_E);	// E high
 cf6:	85 b3       	in	r24, 0x15	; 21
 cf8:	88 60       	ori	r24, 0x08	; 8
 cfa:	85 bb       	out	0x15, r24	; 21
	#else
		//round up by default
		__ticks_dc = (uint32_t)(ceil(fabs(__tmp)));
	#endif

	__builtin_avr_delay_cycles(__ticks_dc);
 cfc:	8f ec       	ldi	r24, 0xCF	; 207
 cfe:	97 e0       	ldi	r25, 0x07	; 7
 d00:	01 97       	sbiw	r24, 0x01	; 1
 d02:	f1 f7       	brne	.-4      	; 0xd00 <lcd_strobe_lcd_e+0xa>
 d04:	00 c0       	rjmp	.+0      	; 0xd06 <lcd_strobe_lcd_e+0x10>
 d06:	00 00       	nop
	_delay_ms(1);			// nodig
	PORTC &= ~(1<<LCD_E);  	// E low
 d08:	85 b3       	in	r24, 0x15	; 21
 d0a:	87 7f       	andi	r24, 0xF7	; 247
 d0c:	85 bb       	out	0x15, r24	; 21
 d0e:	8f ec       	ldi	r24, 0xCF	; 207
 d10:	97 e0       	ldi	r25, 0x07	; 7
 d12:	01 97       	sbiw	r24, 0x01	; 1
 d14:	f1 f7       	brne	.-4      	; 0xd12 <lcd_strobe_lcd_e+0x1c>
 d16:	00 c0       	rjmp	.+0      	; 0xd18 <lcd_strobe_lcd_e+0x22>
 d18:	00 00       	nop
 d1a:	08 95       	ret

Disassembly of section .text.lcd_write_command:

00000d1c <lcd_write_command>:
	lcd_write_command (0x80);						//Cursor terug naar start
}


void lcd_write_command(unsigned char byte)
{
 d1c:	cf 93       	push	r28
 d1e:	c8 2f       	mov	r28, r24
	// First nibble.
	PORTC = byte;
 d20:	85 bb       	out	0x15, r24	; 21
	PORTC &= ~(1<<LCD_RS);
 d22:	85 b3       	in	r24, 0x15	; 21
 d24:	8b 7f       	andi	r24, 0xFB	; 251
 d26:	85 bb       	out	0x15, r24	; 21
	lcd_strobe_lcd_e();
 d28:	0e 94 7b 06 	call	0xcf6	; 0xcf6 <lcd_strobe_lcd_e>

	// Second nibble
	PORTC = (byte<<4);
 d2c:	c2 95       	swap	r28
 d2e:	c0 7f       	andi	r28, 0xF0	; 240
 d30:	c5 bb       	out	0x15, r28	; 21
	PORTC &= ~(1<<LCD_RS);
 d32:	85 b3       	in	r24, 0x15	; 21
 d34:	8b 7f       	andi	r24, 0xFB	; 251
 d36:	85 bb       	out	0x15, r24	; 21
	lcd_strobe_lcd_e();
 d38:	0e 94 7b 06 	call	0xcf6	; 0xcf6 <lcd_strobe_lcd_e>
}
 d3c:	cf 91       	pop	r28
 d3e:	08 95       	ret

Disassembly of section .text.lcd_clear:

00000d86 <lcd_clear>:
	PORTC &= ~(1<<LCD_E);  	// E low
	_delay_ms(1);			// nodig?
}

void lcd_clear() {
	lcd_write_command (0x01);						//Leeg display
 d86:	81 e0       	ldi	r24, 0x01	; 1
 d88:	90 e0       	ldi	r25, 0x00	; 0
 d8a:	0e 94 8e 06 	call	0xd1c	; 0xd1c <lcd_write_command>
 d8e:	8f e9       	ldi	r24, 0x9F	; 159
 d90:	9f e0       	ldi	r25, 0x0F	; 15
 d92:	01 97       	sbiw	r24, 0x01	; 1
 d94:	f1 f7       	brne	.-4      	; 0xd92 <lcd_clear+0xc>
 d96:	00 c0       	rjmp	.+0      	; 0xd98 <lcd_clear+0x12>
 d98:	00 00       	nop
	_delay_ms(2);
	lcd_write_command (0x80);						//Cursor terug naar start
 d9a:	80 e8       	ldi	r24, 0x80	; 128
 d9c:	90 e0       	ldi	r25, 0x00	; 0
 d9e:	0e 94 8e 06 	call	0xd1c	; 0xd1c <lcd_write_command>
 da2:	08 95       	ret

Disassembly of section .text.lcd_init:

00000b98 <lcd_init>:
	PORTC = (byte<<4);
	PORTC &= ~(1<<LCD_RS);
	lcd_strobe_lcd_e();
}

void lcd_init() {
 b98:	cf 93       	push	r28
	// PORTC output mode and all low (also E and RS pin)
	DDRC = 0xFF;
 b9a:	8f ef       	ldi	r24, 0xFF	; 255
 b9c:	84 bb       	out	0x14, r24	; 20
	PORTC = 0x00;
 b9e:	15 ba       	out	0x15, r1	; 21

	// Step 2 (table 12)
	PORTC = 0x20;	// function set
 ba0:	c0 e2       	ldi	r28, 0x20	; 32
 ba2:	c5 bb       	out	0x15, r28	; 21
	lcd_strobe_lcd_e();
 ba4:	0e 94 7b 06 	call	0xcf6	; 0xcf6 <lcd_strobe_lcd_e>

	// Step 3 (table 12)
	PORTC = 0x20;   // function set
 ba8:	c5 bb       	out	0x15, r28	; 21
	lcd_strobe_lcd_e();
 baa:	0e 94 7b 06 	call	0xcf6	; 0xcf6 <lcd_strobe_lcd_e>
	PORTC = 0x80;
 bae:	80 e8       	ldi	r24, 0x80	; 128
 bb0:	85 bb       	out	0x15, r24	; 21
	lcd_strobe_lcd_e();
 bb2:	0e 94 7b 06 	call	0xcf6	; 0xcf6 <lcd_strobe_lcd_e>

	// Step 4 (table 12)
	PORTC = 0x00;   // Display on/off control
 bb6:	15 ba       	out	0x15, r1	; 21
	lcd_strobe_lcd_e();
 bb8:	0e 94 7b 06 	call	0xcf6	; 0xcf6 <lcd_strobe_lcd_e>
	PORTC = 0xF0;
 bbc:	80 ef       	ldi	r24, 0xF0	; 240
 bbe:	85 bb       	out	0x15, r24	; 21
	lcd_strobe_lcd_e();
 bc0:	0e 94 7b 06 	call	0xcf6	; 0xcf6 <lcd_strobe_lcd_e>

	// Step 4 (table 12)
	PORTC = 0x00;   // Entry mode set
 bc4:	15 ba       	out	0x15, r1	; 21
	lcd_strobe_lcd_e();
 bc6:	0e 94 7b 06 	call	0xcf6	; 0xcf6 <lcd_strobe_lcd_e>
	PORTC = 0x60;
 bca:	80 e6       	ldi	r24, 0x60	; 96
 bcc:	85 bb       	out	0x15, r24	; 21
	lcd_strobe_lcd_e();
 bce:	0e 94 7b 06 	call	0xcf6	; 0xcf6 <lcd_strobe_lcd_e>
	
	lcd_write_command(0x01);
 bd2:	81 e0       	ldi	r24, 0x01	; 1
 bd4:	0e 94 8e 06 	call	0xd1c	; 0xd1c <lcd_write_command>
}
 bd8:	cf 91       	pop	r28
 bda:	08 95       	ret

Disassembly of section .text.lcd_write_data:

00000d40 <lcd_write_data>:

void lcd_write_data(unsigned char byte) {
 d40:	cf 93       	push	r28
 d42:	c8 2f       	mov	r28, r24
	// First nibble.
	PORTC = byte;
 d44:	85 bb       	out	0x15, r24	; 21
	PORTC |= (1<<LCD_RS);
 d46:	85 b3       	in	r24, 0x15	; 21
 d48:	84 60       	ori	r24, 0x04	; 4
 d4a:	85 bb       	out	0x15, r24	; 21
	lcd_strobe_lcd_e();
 d4c:	0e 94 7b 06 	call	0xcf6	; 0xcf6 <lcd_strobe_lcd_e>

	// Second nibble
	PORTC = (byte<<4);
 d50:	c2 95       	swap	r28
 d52:	c0 7f       	andi	r28, 0xF0	; 240
 d54:	c5 bb       	out	0x15, r28	; 21
	PORTC |= (1<<LCD_RS);
 d56:	85 b3       	in	r24, 0x15	; 21
 d58:	84 60       	ori	r24, 0x04	; 4
 d5a:	85 bb       	out	0x15, r24	; 21
	lcd_strobe_lcd_e();
 d5c:	0e 94 7b 06 	call	0xcf6	; 0xcf6 <lcd_strobe_lcd_e>
}
 d60:	cf 91       	pop	r28
 d62:	08 95       	ret

Disassembly of section .text.lcd_display_text:

00000de0 <lcd_display_text>:

void lcd_display_text(char *str) {
 de0:	cf 93       	push	r28
 de2:	df 93       	push	r29
 de4:	ec 01       	movw	r28, r24
	while(*str) {
 de6:	03 c0       	rjmp	.+6      	; 0xdee <lcd_display_text+0xe>
		lcd_write_data(*str++);
 de8:	21 96       	adiw	r28, 0x01	; 1
 dea:	0e 94 a0 06 	call	0xd40	; 0xd40 <lcd_write_data>
	PORTC |= (1<<LCD_RS);
	lcd_strobe_lcd_e();
}

void lcd_display_text(char *str) {
	while(*str) {
 dee:	88 81       	ld	r24, Y
 df0:	81 11       	cpse	r24, r1
 df2:	fa cf       	rjmp	.-12     	; 0xde8 <lcd_display_text+0x8>
		lcd_write_data(*str++);
	}
}
 df4:	df 91       	pop	r29
 df6:	cf 91       	pop	r28
 df8:	08 95       	ret

Disassembly of section .text.display_distance_on_lcd:

00000960 <display_distance_on_lcd>:

double distance;
const char *noteToPlay;


void display_distance_on_lcd() {
 960:	ef 92       	push	r14
 962:	ff 92       	push	r15
 964:	0f 93       	push	r16
 966:	1f 93       	push	r17
 968:	cf 93       	push	r28
 96a:	df 93       	push	r29
 96c:	cd b7       	in	r28, 0x3d	; 61
 96e:	de b7       	in	r29, 0x3e	; 62
 970:	2a 97       	sbiw	r28, 0x0a	; 10
 972:	0f b6       	in	r0, 0x3f	; 63
 974:	f8 94       	cli
 976:	de bf       	out	0x3e, r29	; 62
 978:	0f be       	out	0x3f, r0	; 63
 97a:	cd bf       	out	0x3d, r28	; 61
	char string[10];
	dtostrf(distance, 2, 2, string);/* distance to string */
 97c:	60 91 03 01 	lds	r22, 0x0103	; 0x800103 <_end>
 980:	70 91 04 01 	lds	r23, 0x0104	; 0x800104 <_end+0x1>
 984:	80 91 05 01 	lds	r24, 0x0105	; 0x800105 <_end+0x2>
 988:	90 91 06 01 	lds	r25, 0x0106	; 0x800106 <_end+0x3>
 98c:	9e 01       	movw	r18, r28
 98e:	2f 5f       	subi	r18, 0xFF	; 255
 990:	3f 4f       	sbci	r19, 0xFF	; 255
 992:	79 01       	movw	r14, r18
 994:	89 01       	movw	r16, r18
 996:	22 e0       	ldi	r18, 0x02	; 2
 998:	42 e0       	ldi	r20, 0x02	; 2
 99a:	0e 94 10 06 	call	0xc20	; 0xc20 <dtostrf>
	strcat(string, " cm ");	/* Concat unit i.e.cm */
 99e:	f7 01       	movw	r30, r14
 9a0:	01 90       	ld	r0, Z+
 9a2:	00 20       	and	r0, r0
 9a4:	e9 f7       	brne	.-6      	; 0x9a0 <display_distance_on_lcd+0x40>
 9a6:	cf 01       	movw	r24, r30
 9a8:	25 e0       	ldi	r18, 0x05	; 5
 9aa:	30 e0       	ldi	r19, 0x00	; 0
 9ac:	45 e3       	ldi	r20, 0x35	; 53
 9ae:	52 e0       	ldi	r21, 0x02	; 2
 9b0:	60 e0       	ldi	r22, 0x00	; 0
 9b2:	01 97       	sbiw	r24, 0x01	; 1
 9b4:	0e 94 4b 06 	call	0xc96	; 0xc96 <memcpy>
	strcat(string, noteToPlay);
 9b8:	40 91 00 01 	lds	r20, 0x0100	; 0x800100 <__DATA_REGION_ORIGIN__>
 9bc:	50 91 01 01 	lds	r21, 0x0101	; 0x800101 <__DATA_REGION_ORIGIN__+0x1>
 9c0:	60 91 02 01 	lds	r22, 0x0102	; 0x800102 <__DATA_REGION_ORIGIN__+0x2>
 9c4:	c7 01       	movw	r24, r14
 9c6:	0e 94 64 06 	call	0xcc8	; 0xcc8 <strcat>
	lcd_clear();
 9ca:	0e 94 c3 06 	call	0xd86	; 0xd86 <lcd_clear>
	lcd_display_text(string);
 9ce:	c7 01       	movw	r24, r14
 9d0:	0e 94 f0 06 	call	0xde0	; 0xde0 <lcd_display_text>
}
 9d4:	2a 96       	adiw	r28, 0x0a	; 10
 9d6:	0f b6       	in	r0, 0x3f	; 63
 9d8:	f8 94       	cli
 9da:	de bf       	out	0x3e, r29	; 62
 9dc:	0f be       	out	0x3f, r0	; 63
 9de:	cd bf       	out	0x3d, r28	; 61
 9e0:	df 91       	pop	r29
 9e2:	cf 91       	pop	r28
 9e4:	1f 91       	pop	r17
 9e6:	0f 91       	pop	r16
 9e8:	ff 90       	pop	r15
 9ea:	ef 90       	pop	r14
 9ec:	08 95       	ret

Disassembly of section .text.main:

00000c60 <main>:



int main(void)
{
	US_init();
 c60:	0e 94 1e 07 	call	0xe3c	; 0xe3c <US_init>
	BUZZER_init();
 c64:	0e 94 fd 06 	call	0xdfa	; 0xdfa <BUZZER_init>
	DDRA = 0xFF;
 c68:	8f ef       	ldi	r24, 0xFF	; 255
 c6a:	8a bb       	out	0x1a, r24	; 26
	while(1)
	{
		
		US_trigger();
 c6c:	0e 94 13 07 	call	0xe26	; 0xe26 <US_trigger>
		wait(250);
 c70:	8a ef       	ldi	r24, 0xFA	; 250
 c72:	90 e0       	ldi	r25, 0x00	; 0
 c74:	0e 94 d2 06 	call	0xda4	; 0xda4 <wait>
		display_distance_on_lcd();
 c78:	0e 94 b0 04 	call	0x960	; 0x960 <display_distance_on_lcd>
			// toggle bit 7 PORTA
		BUZZER_change_frequency(get_musical_value(distance));
 c7c:	60 91 03 01 	lds	r22, 0x0103	; 0x800103 <_end>
 c80:	70 91 04 01 	lds	r23, 0x0104	; 0x800104 <_end+0x1>
 c84:	80 91 05 01 	lds	r24, 0x0105	; 0x800105 <_end+0x2>
 c88:	90 91 06 01 	lds	r25, 0x0106	; 0x800106 <_end+0x3>
 c8c:	0e 94 94 02 	call	0x528	; 0x528 <get_musical_value>
 c90:	0e 94 66 07 	call	0xecc	; 0xecc <BUZZER_change_frequency>
 c94:	eb cf       	rjmp	.-42     	; 0xc6c <main+0xc>

Disassembly of section .text.wait:

00000da4 <wait>:

char ticksOnTrigger = 0;
double distance = 0;

void wait( int ms ) {
	for (int i=0; i<ms; i++) {
 da4:	20 e0       	ldi	r18, 0x00	; 0
 da6:	30 e0       	ldi	r19, 0x00	; 0
 da8:	08 c0       	rjmp	.+16     	; 0xdba <wait+0x16>
 daa:	ef ec       	ldi	r30, 0xCF	; 207
 dac:	f7 e0       	ldi	r31, 0x07	; 7
 dae:	31 97       	sbiw	r30, 0x01	; 1
 db0:	f1 f7       	brne	.-4      	; 0xdae <wait+0xa>
 db2:	00 c0       	rjmp	.+0      	; 0xdb4 <wait+0x10>
 db4:	00 00       	nop
 db6:	2f 5f       	subi	r18, 0xFF	; 255
 db8:	3f 4f       	sbci	r19, 0xFF	; 255
 dba:	28 17       	cp	r18, r24
 dbc:	39 07       	cpc	r19, r25
 dbe:	ac f3       	brlt	.-22     	; 0xdaa <wait+0x6>
		_delay_ms( 1 );		// library function (max 30 ms at 8MHz)
	}
}
 dc0:	08 95       	ret

Disassembly of section .text.__vector_10:

00000e10 <__vector_10>:

ISR(TIMER2_OVF_vect)
{
 e10:	1f 92       	push	r1
 e12:	0f 92       	push	r0
 e14:	0f b6       	in	r0, 0x3f	; 63
 e16:	0f 92       	push	r0
 e18:	11 24       	eor	r1, r1
	TCNT2 = 0;
 e1a:	14 bc       	out	0x24, r1	; 36
}
 e1c:	0f 90       	pop	r0
 e1e:	0f be       	out	0x3f, r0	; 63
 e20:	0f 90       	pop	r0
 e22:	1f 90       	pop	r1
 e24:	18 95       	reti

Disassembly of section .text.__vector_8:

000009ee <__vector_8>:

ISR ( INT7_vect )
{
 9ee:	1f 92       	push	r1
 9f0:	0f 92       	push	r0
 9f2:	0f b6       	in	r0, 0x3f	; 63
 9f4:	0f 92       	push	r0
 9f6:	11 24       	eor	r1, r1
 9f8:	0b b6       	in	r0, 0x3b	; 59
 9fa:	0f 92       	push	r0
 9fc:	2f 93       	push	r18
 9fe:	3f 93       	push	r19
 a00:	4f 93       	push	r20
 a02:	5f 93       	push	r21
 a04:	6f 93       	push	r22
 a06:	7f 93       	push	r23
 a08:	8f 93       	push	r24
 a0a:	9f 93       	push	r25
 a0c:	af 93       	push	r26
 a0e:	bf 93       	push	r27
 a10:	ef 93       	push	r30
 a12:	ff 93       	push	r31
	// Setting the time from the timer on PE7 going high
	if(PINE & (1 << ECHO_PIN)) {
 a14:	0f 9b       	sbis	0x01, 7	; 1
 a16:	04 c0       	rjmp	.+8      	; 0xa20 <__vector_8+0x32>
		ticksOnTrigger = TCNT2;
 a18:	84 b5       	in	r24, 0x24	; 36
 a1a:	80 93 07 01 	sts	0x0107, r24	; 0x800107 <ticksOnTrigger>
 a1e:	19 c0       	rjmp	.+50     	; 0xa52 <__vector_8+0x64>
	}
	else
	{
		unsigned char diff = TCNT2 - ticksOnTrigger;        // Getting the difference from timer and start
 a20:	64 b5       	in	r22, 0x24	; 36
 a22:	80 91 07 01 	lds	r24, 0x0107	; 0x800107 <ticksOnTrigger>
 a26:	68 1b       	sub	r22, r24

		distance = ( diff * ( 32.0 / TICK_CM ) );    // Calculating cm
 a28:	70 e0       	ldi	r23, 0x00	; 0
 a2a:	80 e0       	ldi	r24, 0x00	; 0
 a2c:	90 e0       	ldi	r25, 0x00	; 0
 a2e:	0e 94 3e 05 	call	0xa7c	; 0xa7c <__floatsisf>
 a32:	2b ec       	ldi	r18, 0xCB	; 203
 a34:	3d e3       	ldi	r19, 0x3D	; 61
 a36:	4d e0       	ldi	r20, 0x0D	; 13
 a38:	5f e3       	ldi	r21, 0x3F	; 63
 a3a:	0e 94 6a 07 	call	0xed4	; 0xed4 <__mulsf3>
 a3e:	60 93 03 01 	sts	0x0103, r22	; 0x800103 <_end>
 a42:	70 93 04 01 	sts	0x0104, r23	; 0x800104 <_end+0x1>
 a46:	80 93 05 01 	sts	0x0105, r24	; 0x800105 <_end+0x2>
 a4a:	90 93 06 01 	sts	0x0106, r25	; 0x800106 <_end+0x3>


		ticksOnTrigger = 0;                                    // resetting ticksOnTrigger
 a4e:	10 92 07 01 	sts	0x0107, r1	; 0x800107 <ticksOnTrigger>
	}
}
 a52:	ff 91       	pop	r31
 a54:	ef 91       	pop	r30
 a56:	bf 91       	pop	r27
 a58:	af 91       	pop	r26
 a5a:	9f 91       	pop	r25
 a5c:	8f 91       	pop	r24
 a5e:	7f 91       	pop	r23
 a60:	6f 91       	pop	r22
 a62:	5f 91       	pop	r21
 a64:	4f 91       	pop	r20
 a66:	3f 91       	pop	r19
 a68:	2f 91       	pop	r18
 a6a:	0f 90       	pop	r0
 a6c:	0b be       	out	0x3b, r0	; 59
 a6e:	0f 90       	pop	r0
 a70:	0f be       	out	0x3f, r0	; 63
 a72:	0f 90       	pop	r0
 a74:	1f 90       	pop	r1
 a76:	18 95       	reti

Disassembly of section .text.US_init_pins:

00000dc2 <US_init_pins>:

void US_init_pins() {
	DDRD = 0xFF;
 dc2:	8f ef       	ldi	r24, 0xFF	; 255
 dc4:	81 bb       	out	0x11, r24	; 17
	
	EICRB |= 0x40;			//
 dc6:	8a b7       	in	r24, 0x3a	; 58
 dc8:	80 64       	ori	r24, 0x40	; 64
 dca:	8a bf       	out	0x3a, r24	; 58
	EIMSK |= 0x80;			// Enable INT7
 dcc:	89 b7       	in	r24, 0x39	; 57
 dce:	80 68       	ori	r24, 0x80	; 128
 dd0:	89 bf       	out	0x39, r24	; 57
	
	DDRE |= (1 << TRIGGER_PIN);
 dd2:	82 b1       	in	r24, 0x02	; 2
 dd4:	81 60       	ori	r24, 0x01	; 1
 dd6:	82 b9       	out	0x02, r24	; 2
	DDRE &= ~(1 << ECHO_PIN);
 dd8:	82 b1       	in	r24, 0x02	; 2
 dda:	8f 77       	andi	r24, 0x7F	; 127
 ddc:	82 b9       	out	0x02, r24	; 2
 dde:	08 95       	ret

Disassembly of section .text.Timer_init:

00000e60 <Timer_init>:
}

void Timer_init() {
	TCNT2 = 0;	/* Clear Timer counter */
 e60:	14 bc       	out	0x24, r1	; 36
	TIMSK |= 0b01000000; /* Enables overflow interrupt for timer 2, TOV2 bit is set in the Timer/Counter Interrupt Flag Register – TIFR. */
 e62:	87 b7       	in	r24, 0x37	; 55
 e64:	80 64       	ori	r24, 0x40	; 64
 e66:	87 bf       	out	0x37, r24	; 55
	TCCR2 = 0b00001100;
 e68:	8c e0       	ldi	r24, 0x0C	; 12
 e6a:	85 bd       	out	0x25, r24	; 37
	sei();			/* Enable global interrupt */
 e6c:	78 94       	sei
 e6e:	08 95       	ret

Disassembly of section .text.US_trigger:

00000e26 <US_trigger>:
}

void US_trigger() {
	/* Give 10us trigger pulse on trig. pin to HC-SR04 */
	PORTE |= (1 << TRIGGER_PIN);
 e26:	83 b1       	in	r24, 0x03	; 3
 e28:	81 60       	ori	r24, 0x01	; 1
 e2a:	83 b9       	out	0x03, r24	; 3
	#else
		//round up by default
		__ticks_dc = (uint32_t)(ceil(fabs(__tmp)));
	#endif

	__builtin_avr_delay_cycles(__ticks_dc);
 e2c:	8a e1       	ldi	r24, 0x1A	; 26
 e2e:	8a 95       	dec	r24
 e30:	f1 f7       	brne	.-4      	; 0xe2e <US_trigger+0x8>
 e32:	00 c0       	rjmp	.+0      	; 0xe34 <US_trigger+0xe>
	_delay_us(10);
	PORTE &= ~(1 << TRIGGER_PIN);
 e34:	83 b1       	in	r24, 0x03	; 3
 e36:	8e 7f       	andi	r24, 0xFE	; 254
 e38:	83 b9       	out	0x03, r24	; 3
 e3a:	08 95       	ret

Disassembly of section .text.US_init:

00000e3c <US_init>:
}

void US_init() {
	Timer_init();
 e3c:	0e 94 30 07 	call	0xe60	; 0xe60 <Timer_init>
	lcd_init();
 e40:	0e 94 cc 05 	call	0xb98	; 0xb98 <lcd_init>
	lcd_clear();
 e44:	0e 94 c3 06 	call	0xd86	; 0xd86 <lcd_clear>
	US_init_pins();
 e48:	0e 94 e1 06 	call	0xdc2	; 0xdc2 <US_init_pins>
 e4c:	08 95       	ret

Disassembly of section .text.avrlibc.fplib:

00000e70 <__fixsfsi>:
 e70:	0e 94 79 05 	call	0xaf2	; 0xaf2 <__fixunssfsi>
 e74:	68 94       	set
 e76:	b1 11       	cpse	r27, r1
 e78:	0c 94 40 07 	jmp	0xe80	; 0xe80 <__fp_szero>
 e7c:	08 95       	ret

Disassembly of section .text.avrlibc.fplib:

00000af2 <__fixunssfsi>:
 af2:	0e 94 f6 05 	call	0xbec	; 0xbec <__fp_splitA>
 af6:	88 f0       	brcs	.+34     	; 0xb1a <__fixunssfsi+0x28>
 af8:	9f 57       	subi	r25, 0x7F	; 127
 afa:	98 f0       	brcs	.+38     	; 0xb22 <__fixunssfsi+0x30>
 afc:	b9 2f       	mov	r27, r25
 afe:	99 27       	eor	r25, r25
 b00:	b7 51       	subi	r27, 0x17	; 23
 b02:	b0 f0       	brcs	.+44     	; 0xb30 <__fixunssfsi+0x3e>
 b04:	e1 f0       	breq	.+56     	; 0xb3e <__fixunssfsi+0x4c>
 b06:	66 0f       	add	r22, r22
 b08:	77 1f       	adc	r23, r23
 b0a:	88 1f       	adc	r24, r24
 b0c:	99 1f       	adc	r25, r25
 b0e:	1a f0       	brmi	.+6      	; 0xb16 <__fixunssfsi+0x24>
 b10:	ba 95       	dec	r27
 b12:	c9 f7       	brne	.-14     	; 0xb06 <__fixunssfsi+0x14>
 b14:	14 c0       	rjmp	.+40     	; 0xb3e <__fixunssfsi+0x4c>
 b16:	b1 30       	cpi	r27, 0x01	; 1
 b18:	91 f0       	breq	.+36     	; 0xb3e <__fixunssfsi+0x4c>
 b1a:	0e 94 3f 07 	call	0xe7e	; 0xe7e <__fp_zero>
 b1e:	b1 e0       	ldi	r27, 0x01	; 1
 b20:	08 95       	ret
 b22:	0c 94 3f 07 	jmp	0xe7e	; 0xe7e <__fp_zero>
 b26:	67 2f       	mov	r22, r23
 b28:	78 2f       	mov	r23, r24
 b2a:	88 27       	eor	r24, r24
 b2c:	b8 5f       	subi	r27, 0xF8	; 248
 b2e:	39 f0       	breq	.+14     	; 0xb3e <__fixunssfsi+0x4c>
 b30:	b9 3f       	cpi	r27, 0xF9	; 249
 b32:	cc f3       	brlt	.-14     	; 0xb26 <__fixunssfsi+0x34>
 b34:	86 95       	lsr	r24
 b36:	77 95       	ror	r23
 b38:	67 95       	ror	r22
 b3a:	b3 95       	inc	r27
 b3c:	d9 f7       	brne	.-10     	; 0xb34 <__fixunssfsi+0x42>
 b3e:	3e f4       	brtc	.+14     	; 0xb4e <__fixunssfsi+0x5c>
 b40:	90 95       	com	r25
 b42:	80 95       	com	r24
 b44:	70 95       	com	r23
 b46:	61 95       	neg	r22
 b48:	7f 4f       	sbci	r23, 0xFF	; 255
 b4a:	8f 4f       	sbci	r24, 0xFF	; 255
 b4c:	9f 4f       	sbci	r25, 0xFF	; 255
 b4e:	08 95       	ret

Disassembly of section .text.avrlibc.fplib:

00000a78 <__floatunsisf>:
 a78:	e8 94       	clt
 a7a:	09 c0       	rjmp	.+18     	; 0xa8e <__floatsisf+0x12>

00000a7c <__floatsisf>:
 a7c:	97 fb       	bst	r25, 7
 a7e:	3e f4       	brtc	.+14     	; 0xa8e <__floatsisf+0x12>
 a80:	90 95       	com	r25
 a82:	80 95       	com	r24
 a84:	70 95       	com	r23
 a86:	61 95       	neg	r22
 a88:	7f 4f       	sbci	r23, 0xFF	; 255
 a8a:	8f 4f       	sbci	r24, 0xFF	; 255
 a8c:	9f 4f       	sbci	r25, 0xFF	; 255
 a8e:	99 23       	and	r25, r25
 a90:	a9 f0       	breq	.+42     	; 0xabc <__floatsisf+0x40>
 a92:	f9 2f       	mov	r31, r25
 a94:	96 e9       	ldi	r25, 0x96	; 150
 a96:	bb 27       	eor	r27, r27
 a98:	93 95       	inc	r25
 a9a:	f6 95       	lsr	r31
 a9c:	87 95       	ror	r24
 a9e:	77 95       	ror	r23
 aa0:	67 95       	ror	r22
 aa2:	b7 95       	ror	r27
 aa4:	f1 11       	cpse	r31, r1
 aa6:	f8 cf       	rjmp	.-16     	; 0xa98 <__floatsisf+0x1c>
 aa8:	fa f4       	brpl	.+62     	; 0xae8 <__floatsisf+0x6c>
 aaa:	bb 0f       	add	r27, r27
 aac:	11 f4       	brne	.+4      	; 0xab2 <__floatsisf+0x36>
 aae:	60 ff       	sbrs	r22, 0
 ab0:	1b c0       	rjmp	.+54     	; 0xae8 <__floatsisf+0x6c>
 ab2:	6f 5f       	subi	r22, 0xFF	; 255
 ab4:	7f 4f       	sbci	r23, 0xFF	; 255
 ab6:	8f 4f       	sbci	r24, 0xFF	; 255
 ab8:	9f 4f       	sbci	r25, 0xFF	; 255
 aba:	16 c0       	rjmp	.+44     	; 0xae8 <__floatsisf+0x6c>
 abc:	88 23       	and	r24, r24
 abe:	11 f0       	breq	.+4      	; 0xac4 <__floatsisf+0x48>
 ac0:	96 e9       	ldi	r25, 0x96	; 150
 ac2:	11 c0       	rjmp	.+34     	; 0xae6 <__floatsisf+0x6a>
 ac4:	77 23       	and	r23, r23
 ac6:	21 f0       	breq	.+8      	; 0xad0 <__floatsisf+0x54>
 ac8:	9e e8       	ldi	r25, 0x8E	; 142
 aca:	87 2f       	mov	r24, r23
 acc:	76 2f       	mov	r23, r22
 ace:	05 c0       	rjmp	.+10     	; 0xada <__floatsisf+0x5e>
 ad0:	66 23       	and	r22, r22
 ad2:	71 f0       	breq	.+28     	; 0xaf0 <__floatsisf+0x74>
 ad4:	96 e8       	ldi	r25, 0x86	; 134
 ad6:	86 2f       	mov	r24, r22
 ad8:	70 e0       	ldi	r23, 0x00	; 0
 ada:	60 e0       	ldi	r22, 0x00	; 0
 adc:	2a f0       	brmi	.+10     	; 0xae8 <__floatsisf+0x6c>
 ade:	9a 95       	dec	r25
 ae0:	66 0f       	add	r22, r22
 ae2:	77 1f       	adc	r23, r23
 ae4:	88 1f       	adc	r24, r24
 ae6:	da f7       	brpl	.-10     	; 0xade <__floatsisf+0x62>
 ae8:	88 0f       	add	r24, r24
 aea:	96 95       	lsr	r25
 aec:	87 95       	ror	r24
 aee:	97 f9       	bld	r25, 7
 af0:	08 95       	ret

Disassembly of section .text.avrlibc.fplib:

00000bdc <__fp_split3>:
 bdc:	57 fd       	sbrc	r21, 7
 bde:	90 58       	subi	r25, 0x80	; 128
 be0:	44 0f       	add	r20, r20
 be2:	55 1f       	adc	r21, r21
 be4:	59 f0       	breq	.+22     	; 0xbfc <__fp_splitA+0x10>
 be6:	5f 3f       	cpi	r21, 0xFF	; 255
 be8:	71 f0       	breq	.+28     	; 0xc06 <__fp_splitA+0x1a>
 bea:	47 95       	ror	r20

00000bec <__fp_splitA>:
 bec:	88 0f       	add	r24, r24
 bee:	97 fb       	bst	r25, 7
 bf0:	99 1f       	adc	r25, r25
 bf2:	61 f0       	breq	.+24     	; 0xc0c <__fp_splitA+0x20>
 bf4:	9f 3f       	cpi	r25, 0xFF	; 255
 bf6:	79 f0       	breq	.+30     	; 0xc16 <__fp_splitA+0x2a>
 bf8:	87 95       	ror	r24
 bfa:	08 95       	ret
 bfc:	12 16       	cp	r1, r18
 bfe:	13 06       	cpc	r1, r19
 c00:	14 06       	cpc	r1, r20
 c02:	55 1f       	adc	r21, r21
 c04:	f2 cf       	rjmp	.-28     	; 0xbea <__fp_split3+0xe>
 c06:	46 95       	lsr	r20
 c08:	f1 df       	rcall	.-30     	; 0xbec <__fp_splitA>
 c0a:	08 c0       	rjmp	.+16     	; 0xc1c <__fp_splitA+0x30>
 c0c:	16 16       	cp	r1, r22
 c0e:	17 06       	cpc	r1, r23
 c10:	18 06       	cpc	r1, r24
 c12:	99 1f       	adc	r25, r25
 c14:	f1 cf       	rjmp	.-30     	; 0xbf8 <__fp_splitA+0xc>
 c16:	86 95       	lsr	r24
 c18:	71 05       	cpc	r23, r1
 c1a:	61 05       	cpc	r22, r1
 c1c:	08 94       	sec
 c1e:	08 95       	ret

Disassembly of section .text.avrlibc.fplib:

00000e7e <__fp_zero>:
 e7e:	e8 94       	clt

00000e80 <__fp_szero>:
 e80:	bb 27       	eor	r27, r27
 e82:	66 27       	eor	r22, r22
 e84:	77 27       	eor	r23, r23
 e86:	cb 01       	movw	r24, r22
 e88:	97 f9       	bld	r25, 7
 e8a:	08 95       	ret

Disassembly of section .text.avrlibc.fplib:

00000ec2 <__gesf2>:
 ec2:	0e 94 a8 05 	call	0xb50	; 0xb50 <__fp_cmp>
 ec6:	08 f4       	brcc	.+2      	; 0xeca <__gesf2+0x8>
 ec8:	8f ef       	ldi	r24, 0xFF	; 255
 eca:	08 95       	ret

Disassembly of section .text.avrlibc.fplib:

00000ed4 <__mulsf3>:
 ed4:	0e 94 46 04 	call	0x88c	; 0x88c <__mulsf3x>
 ed8:	0c 94 b2 06 	jmp	0xd64	; 0xd64 <__fp_round>

Disassembly of section .text.avrlibc.fplib:

0000088c <__mulsf3x>:
 88c:	0f c0       	rjmp	.+30     	; 0x8ac <__mulsf3x+0x20>
 88e:	0e 94 46 07 	call	0xe8c	; 0xe8c <__fp_pscA>
 892:	38 f0       	brcs	.+14     	; 0x8a2 <__mulsf3x+0x16>
 894:	0e 94 4d 07 	call	0xe9a	; 0xe9a <__fp_pscB>
 898:	20 f0       	brcs	.+8      	; 0x8a2 <__mulsf3x+0x16>
 89a:	95 23       	and	r25, r21
 89c:	11 f0       	breq	.+4      	; 0x8a2 <__mulsf3x+0x16>
 89e:	0c 94 5b 07 	jmp	0xeb6	; 0xeb6 <__fp_inf>
 8a2:	0c 94 6e 07 	jmp	0xedc	; 0xedc <__fp_nan>
 8a6:	11 24       	eor	r1, r1
 8a8:	0c 94 40 07 	jmp	0xe80	; 0xe80 <__fp_szero>
 8ac:	0e 94 ee 05 	call	0xbdc	; 0xbdc <__fp_split3>
 8b0:	70 f3       	brcs	.-36     	; 0x88e <__mulsf3x+0x2>

000008b2 <__mulsf3_pse>:
 8b2:	95 9f       	mul	r25, r21
 8b4:	c1 f3       	breq	.-16     	; 0x8a6 <__mulsf3x+0x1a>
 8b6:	95 0f       	add	r25, r21
 8b8:	50 e0       	ldi	r21, 0x00	; 0
 8ba:	55 1f       	adc	r21, r21
 8bc:	62 9f       	mul	r22, r18
 8be:	f0 01       	movw	r30, r0
 8c0:	72 9f       	mul	r23, r18
 8c2:	bb 27       	eor	r27, r27
 8c4:	f0 0d       	add	r31, r0
 8c6:	b1 1d       	adc	r27, r1
 8c8:	63 9f       	mul	r22, r19
 8ca:	aa 27       	eor	r26, r26
 8cc:	f0 0d       	add	r31, r0
 8ce:	b1 1d       	adc	r27, r1
 8d0:	aa 1f       	adc	r26, r26
 8d2:	64 9f       	mul	r22, r20
 8d4:	66 27       	eor	r22, r22
 8d6:	b0 0d       	add	r27, r0
 8d8:	a1 1d       	adc	r26, r1
 8da:	66 1f       	adc	r22, r22
 8dc:	82 9f       	mul	r24, r18
 8de:	22 27       	eor	r18, r18
 8e0:	b0 0d       	add	r27, r0
 8e2:	a1 1d       	adc	r26, r1
 8e4:	62 1f       	adc	r22, r18
 8e6:	73 9f       	mul	r23, r19
 8e8:	b0 0d       	add	r27, r0
 8ea:	a1 1d       	adc	r26, r1
 8ec:	62 1f       	adc	r22, r18
 8ee:	83 9f       	mul	r24, r19
 8f0:	a0 0d       	add	r26, r0
 8f2:	61 1d       	adc	r22, r1
 8f4:	22 1f       	adc	r18, r18
 8f6:	74 9f       	mul	r23, r20
 8f8:	33 27       	eor	r19, r19
 8fa:	a0 0d       	add	r26, r0
 8fc:	61 1d       	adc	r22, r1
 8fe:	23 1f       	adc	r18, r19
 900:	84 9f       	mul	r24, r20
 902:	60 0d       	add	r22, r0
 904:	21 1d       	adc	r18, r1
 906:	82 2f       	mov	r24, r18
 908:	76 2f       	mov	r23, r22
 90a:	6a 2f       	mov	r22, r26
 90c:	11 24       	eor	r1, r1
 90e:	9f 57       	subi	r25, 0x7F	; 127
 910:	50 40       	sbci	r21, 0x00	; 0
 912:	9a f0       	brmi	.+38     	; 0x93a <__mulsf3_pse+0x88>
 914:	f1 f0       	breq	.+60     	; 0x952 <__mulsf3_pse+0xa0>
 916:	88 23       	and	r24, r24
 918:	4a f0       	brmi	.+18     	; 0x92c <__mulsf3_pse+0x7a>
 91a:	ee 0f       	add	r30, r30
 91c:	ff 1f       	adc	r31, r31
 91e:	bb 1f       	adc	r27, r27
 920:	66 1f       	adc	r22, r22
 922:	77 1f       	adc	r23, r23
 924:	88 1f       	adc	r24, r24
 926:	91 50       	subi	r25, 0x01	; 1
 928:	50 40       	sbci	r21, 0x00	; 0
 92a:	a9 f7       	brne	.-22     	; 0x916 <__mulsf3_pse+0x64>
 92c:	9e 3f       	cpi	r25, 0xFE	; 254
 92e:	51 05       	cpc	r21, r1
 930:	80 f0       	brcs	.+32     	; 0x952 <__mulsf3_pse+0xa0>
 932:	0c 94 5b 07 	jmp	0xeb6	; 0xeb6 <__fp_inf>
 936:	0c 94 40 07 	jmp	0xe80	; 0xe80 <__fp_szero>
 93a:	5f 3f       	cpi	r21, 0xFF	; 255
 93c:	e4 f3       	brlt	.-8      	; 0x936 <__mulsf3_pse+0x84>
 93e:	98 3e       	cpi	r25, 0xE8	; 232
 940:	d4 f3       	brlt	.-12     	; 0x936 <__mulsf3_pse+0x84>
 942:	86 95       	lsr	r24
 944:	77 95       	ror	r23
 946:	67 95       	ror	r22
 948:	b7 95       	ror	r27
 94a:	f7 95       	ror	r31
 94c:	e7 95       	ror	r30
 94e:	9f 5f       	subi	r25, 0xFF	; 255
 950:	c1 f7       	brne	.-16     	; 0x942 <__mulsf3_pse+0x90>
 952:	fe 2b       	or	r31, r30
 954:	88 0f       	add	r24, r24
 956:	91 1d       	adc	r25, r1
 958:	96 95       	lsr	r25
 95a:	87 95       	ror	r24
 95c:	97 f9       	bld	r25, 7
 95e:	08 95       	ret

Disassembly of section .text.avrlibc.fplib:

00000b50 <__fp_cmp>:
 b50:	99 0f       	add	r25, r25
 b52:	00 08       	sbc	r0, r0
 b54:	55 0f       	add	r21, r21
 b56:	aa 0b       	sbc	r26, r26
 b58:	e0 e8       	ldi	r30, 0x80	; 128
 b5a:	fe ef       	ldi	r31, 0xFE	; 254
 b5c:	16 16       	cp	r1, r22
 b5e:	17 06       	cpc	r1, r23
 b60:	e8 07       	cpc	r30, r24
 b62:	f9 07       	cpc	r31, r25
 b64:	c0 f0       	brcs	.+48     	; 0xb96 <__fp_cmp+0x46>
 b66:	12 16       	cp	r1, r18
 b68:	13 06       	cpc	r1, r19
 b6a:	e4 07       	cpc	r30, r20
 b6c:	f5 07       	cpc	r31, r21
 b6e:	98 f0       	brcs	.+38     	; 0xb96 <__fp_cmp+0x46>
 b70:	62 1b       	sub	r22, r18
 b72:	73 0b       	sbc	r23, r19
 b74:	84 0b       	sbc	r24, r20
 b76:	95 0b       	sbc	r25, r21
 b78:	39 f4       	brne	.+14     	; 0xb88 <__fp_cmp+0x38>
 b7a:	0a 26       	eor	r0, r26
 b7c:	61 f0       	breq	.+24     	; 0xb96 <__fp_cmp+0x46>
 b7e:	23 2b       	or	r18, r19
 b80:	24 2b       	or	r18, r20
 b82:	25 2b       	or	r18, r21
 b84:	21 f4       	brne	.+8      	; 0xb8e <__fp_cmp+0x3e>
 b86:	08 95       	ret
 b88:	0a 26       	eor	r0, r26
 b8a:	09 f4       	brne	.+2      	; 0xb8e <__fp_cmp+0x3e>
 b8c:	a1 40       	sbci	r26, 0x01	; 1
 b8e:	a6 95       	lsr	r26
 b90:	8f ef       	ldi	r24, 0xFF	; 255
 b92:	81 1d       	adc	r24, r1
 b94:	81 1d       	adc	r24, r1
 b96:	08 95       	ret

Disassembly of section .text.avrlibc.fplib:

00000eb6 <__fp_inf>:
 eb6:	97 f9       	bld	r25, 7
 eb8:	9f 67       	ori	r25, 0x7F	; 127
 eba:	80 e8       	ldi	r24, 0x80	; 128
 ebc:	70 e0       	ldi	r23, 0x00	; 0
 ebe:	60 e0       	ldi	r22, 0x00	; 0
 ec0:	08 95       	ret

Disassembly of section .text.avrlibc.fplib:

00000edc <__fp_nan>:
 edc:	9f ef       	ldi	r25, 0xFF	; 255
 ede:	80 ec       	ldi	r24, 0xC0	; 192
 ee0:	08 95       	ret

Disassembly of section .text.avrlibc.fplib:

00000e8c <__fp_pscA>:
 e8c:	00 24       	eor	r0, r0
 e8e:	0a 94       	dec	r0
 e90:	16 16       	cp	r1, r22
 e92:	17 06       	cpc	r1, r23
 e94:	18 06       	cpc	r1, r24
 e96:	09 06       	cpc	r0, r25
 e98:	08 95       	ret

Disassembly of section .text.avrlibc.fplib:

00000e9a <__fp_pscB>:
 e9a:	00 24       	eor	r0, r0
 e9c:	0a 94       	dec	r0
 e9e:	12 16       	cp	r1, r18
 ea0:	13 06       	cpc	r1, r19
 ea2:	14 06       	cpc	r1, r20
 ea4:	05 06       	cpc	r0, r21
 ea6:	08 95       	ret

Disassembly of section .text.avrlibc.fplib:

00000d64 <__fp_round>:
 d64:	09 2e       	mov	r0, r25
 d66:	03 94       	inc	r0
 d68:	00 0c       	add	r0, r0
 d6a:	11 f4       	brne	.+4      	; 0xd70 <__fp_round+0xc>
 d6c:	88 23       	and	r24, r24
 d6e:	52 f0       	brmi	.+20     	; 0xd84 <__fp_round+0x20>
 d70:	bb 0f       	add	r27, r27
 d72:	40 f4       	brcc	.+16     	; 0xd84 <__fp_round+0x20>
 d74:	bf 2b       	or	r27, r31
 d76:	11 f4       	brne	.+4      	; 0xd7c <__fp_round+0x18>
 d78:	60 ff       	sbrs	r22, 0
 d7a:	04 c0       	rjmp	.+8      	; 0xd84 <__fp_round+0x20>
 d7c:	6f 5f       	subi	r22, 0xFF	; 255
 d7e:	7f 4f       	sbci	r23, 0xFF	; 255
 d80:	8f 4f       	sbci	r24, 0xFF	; 255
 d82:	9f 4f       	sbci	r25, 0xFF	; 255
 d84:	08 95       	ret

Disassembly of section .text.libgcc:

00000e4e <__tablejump2__>:
 e4e:	ee 0f       	add	r30, r30
 e50:	ff 1f       	adc	r31, r31
 e52:	00 24       	eor	r0, r0
 e54:	00 1c       	adc	r0, r0
 e56:	0b be       	out	0x3b, r0	; 59
 e58:	07 90       	elpm	r0, Z+
 e5a:	f6 91       	elpm	r31, Z
 e5c:	e0 2d       	mov	r30, r0
 e5e:	09 94       	ijmp

Disassembly of section .text.avrlibc:

00000c20 <dtostrf>:
 c20:	ef 92       	push	r14
 c22:	0f 93       	push	r16
 c24:	1f 93       	push	r17
 c26:	cf 93       	push	r28
 c28:	df 93       	push	r29
 c2a:	e8 01       	movw	r28, r16
 c2c:	47 fd       	sbrc	r20, 7
 c2e:	02 c0       	rjmp	.+4      	; 0xc34 <dtostrf+0x14>
 c30:	34 e0       	ldi	r19, 0x04	; 4
 c32:	01 c0       	rjmp	.+2      	; 0xc36 <dtostrf+0x16>
 c34:	34 e1       	ldi	r19, 0x14	; 20
 c36:	04 2e       	mov	r0, r20
 c38:	00 0c       	add	r0, r0
 c3a:	55 0b       	sbc	r21, r21
 c3c:	57 ff       	sbrs	r21, 7
 c3e:	03 c0       	rjmp	.+6      	; 0xc46 <dtostrf+0x26>
 c40:	51 95       	neg	r21
 c42:	41 95       	neg	r20
 c44:	51 09       	sbc	r21, r1
 c46:	e3 2e       	mov	r14, r19
 c48:	02 2f       	mov	r16, r18
 c4a:	24 2f       	mov	r18, r20
 c4c:	ae 01       	movw	r20, r28
 c4e:	0e 94 1d 01 	call	0x23a	; 0x23a <dtoa_prf>
 c52:	ce 01       	movw	r24, r28
 c54:	df 91       	pop	r29
 c56:	cf 91       	pop	r28
 c58:	1f 91       	pop	r17
 c5a:	0f 91       	pop	r16
 c5c:	ef 90       	pop	r14
 c5e:	08 95       	ret

Disassembly of section .text.avrlibc:

00000c96 <memcpy>:
 c96:	cf 92       	push	r12
 c98:	df 92       	push	r13
 c9a:	ef 92       	push	r14
 c9c:	dc 01       	movw	r26, r24
 c9e:	6a 01       	movw	r12, r20
 ca0:	e6 2e       	mov	r14, r22
 ca2:	28 0f       	add	r18, r24
 ca4:	39 1f       	adc	r19, r25
 ca6:	a2 17       	cp	r26, r18
 ca8:	b3 07       	cpc	r27, r19
 caa:	51 f0       	breq	.+20     	; 0xcc0 <memcpy+0x2a>
 cac:	f6 01       	movw	r30, r12
 cae:	5e 2d       	mov	r21, r14
 cb0:	0e 94 54 07 	call	0xea8	; 0xea8 <__xload_1>
 cb4:	6d 93       	st	X+, r22
 cb6:	4f ef       	ldi	r20, 0xFF	; 255
 cb8:	c4 1a       	sub	r12, r20
 cba:	d4 0a       	sbc	r13, r20
 cbc:	e4 0a       	sbc	r14, r20
 cbe:	f3 cf       	rjmp	.-26     	; 0xca6 <memcpy+0x10>
 cc0:	ef 90       	pop	r14
 cc2:	df 90       	pop	r13
 cc4:	cf 90       	pop	r12
 cc6:	08 95       	ret

Disassembly of section .text.avrlibc:

00000cc8 <strcat>:
 cc8:	9a 01       	movw	r18, r20
 cca:	46 2f       	mov	r20, r22
 ccc:	dc 01       	movw	r26, r24
 cce:	bd 01       	movw	r22, r26
 cd0:	6f 5f       	subi	r22, 0xFF	; 255
 cd2:	7f 4f       	sbci	r23, 0xFF	; 255
 cd4:	5c 91       	ld	r21, X
 cd6:	55 23       	and	r21, r21
 cd8:	11 f0       	breq	.+4      	; 0xcde <strcat+0x16>
 cda:	db 01       	movw	r26, r22
 cdc:	f8 cf       	rjmp	.-16     	; 0xcce <strcat+0x6>
 cde:	f9 01       	movw	r30, r18
 ce0:	54 2f       	mov	r21, r20
 ce2:	0e 94 54 07 	call	0xea8	; 0xea8 <__xload_1>
 ce6:	6d 93       	st	X+, r22
 ce8:	66 23       	and	r22, r22
 cea:	21 f0       	breq	.+8      	; 0xcf4 <strcat+0x2c>
 cec:	2f 5f       	subi	r18, 0xFF	; 255
 cee:	3f 4f       	sbci	r19, 0xFF	; 255
 cf0:	4f 4f       	sbci	r20, 0xFF	; 255
 cf2:	f5 cf       	rjmp	.-22     	; 0xcde <strcat+0x16>
 cf4:	08 95       	ret

Disassembly of section .text.avrlibc:

0000023a <dtoa_prf>:
 23a:	8f 92       	push	r8
 23c:	9f 92       	push	r9
 23e:	af 92       	push	r10
 240:	bf 92       	push	r11
 242:	cf 92       	push	r12
 244:	df 92       	push	r13
 246:	ef 92       	push	r14
 248:	ff 92       	push	r15
 24a:	0f 93       	push	r16
 24c:	1f 93       	push	r17
 24e:	cf 93       	push	r28
 250:	df 93       	push	r29
 252:	cd b7       	in	r28, 0x3d	; 61
 254:	de b7       	in	r29, 0x3e	; 62
 256:	29 97       	sbiw	r28, 0x09	; 9
 258:	0f b6       	in	r0, 0x3f	; 63
 25a:	f8 94       	cli
 25c:	de bf       	out	0x3e, r29	; 62
 25e:	0f be       	out	0x3f, r0	; 63
 260:	cd bf       	out	0x3d, r28	; 61
 262:	6a 01       	movw	r12, r20
 264:	12 2f       	mov	r17, r18
 266:	b0 2e       	mov	r11, r16
 268:	2b e3       	ldi	r18, 0x3B	; 59
 26a:	20 17       	cp	r18, r16
 26c:	20 f0       	brcs	.+8      	; 0x276 <dtoa_prf+0x3c>
 26e:	ff 24       	eor	r15, r15
 270:	f3 94       	inc	r15
 272:	f0 0e       	add	r15, r16
 274:	02 c0       	rjmp	.+4      	; 0x27a <dtoa_prf+0x40>
 276:	2c e3       	ldi	r18, 0x3C	; 60
 278:	f2 2e       	mov	r15, r18
 27a:	0f 2d       	mov	r16, r15
 27c:	27 e0       	ldi	r18, 0x07	; 7
 27e:	ae 01       	movw	r20, r28
 280:	4f 5f       	subi	r20, 0xFF	; 255
 282:	5f 4f       	sbci	r21, 0xFF	; 255
 284:	0e 94 6e 03 	call	0x6dc	; 0x6dc <__ftoa_engine>
 288:	bc 01       	movw	r22, r24
 28a:	49 81       	ldd	r20, Y+1	; 0x01
 28c:	84 2f       	mov	r24, r20
 28e:	89 70       	andi	r24, 0x09	; 9
 290:	81 30       	cpi	r24, 0x01	; 1
 292:	31 f0       	breq	.+12     	; 0x2a0 <dtoa_prf+0x66>
 294:	e1 fc       	sbrc	r14, 1
 296:	06 c0       	rjmp	.+12     	; 0x2a4 <dtoa_prf+0x6a>
 298:	e0 fe       	sbrs	r14, 0
 29a:	06 c0       	rjmp	.+12     	; 0x2a8 <dtoa_prf+0x6e>
 29c:	90 e2       	ldi	r25, 0x20	; 32
 29e:	05 c0       	rjmp	.+10     	; 0x2aa <dtoa_prf+0x70>
 2a0:	9d e2       	ldi	r25, 0x2D	; 45
 2a2:	03 c0       	rjmp	.+6      	; 0x2aa <dtoa_prf+0x70>
 2a4:	9b e2       	ldi	r25, 0x2B	; 43
 2a6:	01 c0       	rjmp	.+2      	; 0x2aa <dtoa_prf+0x70>
 2a8:	90 e0       	ldi	r25, 0x00	; 0
 2aa:	5e 2d       	mov	r21, r14
 2ac:	50 71       	andi	r21, 0x10	; 16
 2ae:	43 ff       	sbrs	r20, 3
 2b0:	3c c0       	rjmp	.+120    	; 0x32a <dtoa_prf+0xf0>
 2b2:	91 11       	cpse	r25, r1
 2b4:	02 c0       	rjmp	.+4      	; 0x2ba <dtoa_prf+0x80>
 2b6:	83 e0       	ldi	r24, 0x03	; 3
 2b8:	01 c0       	rjmp	.+2      	; 0x2bc <dtoa_prf+0x82>
 2ba:	84 e0       	ldi	r24, 0x04	; 4
 2bc:	81 17       	cp	r24, r17
 2be:	18 f4       	brcc	.+6      	; 0x2c6 <dtoa_prf+0x8c>
 2c0:	21 2f       	mov	r18, r17
 2c2:	28 1b       	sub	r18, r24
 2c4:	01 c0       	rjmp	.+2      	; 0x2c8 <dtoa_prf+0x8e>
 2c6:	20 e0       	ldi	r18, 0x00	; 0
 2c8:	51 11       	cpse	r21, r1
 2ca:	0b c0       	rjmp	.+22     	; 0x2e2 <dtoa_prf+0xa8>
 2cc:	f6 01       	movw	r30, r12
 2ce:	82 2f       	mov	r24, r18
 2d0:	30 e2       	ldi	r19, 0x20	; 32
 2d2:	88 23       	and	r24, r24
 2d4:	19 f0       	breq	.+6      	; 0x2dc <dtoa_prf+0xa2>
 2d6:	31 93       	st	Z+, r19
 2d8:	81 50       	subi	r24, 0x01	; 1
 2da:	fb cf       	rjmp	.-10     	; 0x2d2 <dtoa_prf+0x98>
 2dc:	c2 0e       	add	r12, r18
 2de:	d1 1c       	adc	r13, r1
 2e0:	20 e0       	ldi	r18, 0x00	; 0
 2e2:	99 23       	and	r25, r25
 2e4:	29 f0       	breq	.+10     	; 0x2f0 <dtoa_prf+0xb6>
 2e6:	d6 01       	movw	r26, r12
 2e8:	9c 93       	st	X, r25
 2ea:	f6 01       	movw	r30, r12
 2ec:	31 96       	adiw	r30, 0x01	; 1
 2ee:	6f 01       	movw	r12, r30
 2f0:	c6 01       	movw	r24, r12
 2f2:	03 96       	adiw	r24, 0x03	; 3
 2f4:	e2 fe       	sbrs	r14, 2
 2f6:	0a c0       	rjmp	.+20     	; 0x30c <dtoa_prf+0xd2>
 2f8:	3e e4       	ldi	r19, 0x4E	; 78
 2fa:	d6 01       	movw	r26, r12
 2fc:	3c 93       	st	X, r19
 2fe:	41 e4       	ldi	r20, 0x41	; 65
 300:	11 96       	adiw	r26, 0x01	; 1
 302:	4c 93       	st	X, r20
 304:	11 97       	sbiw	r26, 0x01	; 1
 306:	12 96       	adiw	r26, 0x02	; 2
 308:	3c 93       	st	X, r19
 30a:	06 c0       	rjmp	.+12     	; 0x318 <dtoa_prf+0xde>
 30c:	3e e6       	ldi	r19, 0x6E	; 110
 30e:	f6 01       	movw	r30, r12
 310:	30 83       	st	Z, r19
 312:	41 e6       	ldi	r20, 0x61	; 97
 314:	41 83       	std	Z+1, r20	; 0x01
 316:	32 83       	std	Z+2, r19	; 0x02
 318:	fc 01       	movw	r30, r24
 31a:	32 2f       	mov	r19, r18
 31c:	40 e2       	ldi	r20, 0x20	; 32
 31e:	33 23       	and	r19, r19
 320:	09 f4       	brne	.+2      	; 0x324 <dtoa_prf+0xea>
 322:	42 c0       	rjmp	.+132    	; 0x3a8 <dtoa_prf+0x16e>
 324:	41 93       	st	Z+, r20
 326:	31 50       	subi	r19, 0x01	; 1
 328:	fa cf       	rjmp	.-12     	; 0x31e <dtoa_prf+0xe4>
 32a:	42 ff       	sbrs	r20, 2
 32c:	44 c0       	rjmp	.+136    	; 0x3b6 <dtoa_prf+0x17c>
 32e:	91 11       	cpse	r25, r1
 330:	02 c0       	rjmp	.+4      	; 0x336 <dtoa_prf+0xfc>
 332:	83 e0       	ldi	r24, 0x03	; 3
 334:	01 c0       	rjmp	.+2      	; 0x338 <dtoa_prf+0xfe>
 336:	84 e0       	ldi	r24, 0x04	; 4
 338:	81 17       	cp	r24, r17
 33a:	18 f4       	brcc	.+6      	; 0x342 <dtoa_prf+0x108>
 33c:	21 2f       	mov	r18, r17
 33e:	28 1b       	sub	r18, r24
 340:	01 c0       	rjmp	.+2      	; 0x344 <dtoa_prf+0x10a>
 342:	20 e0       	ldi	r18, 0x00	; 0
 344:	51 11       	cpse	r21, r1
 346:	0b c0       	rjmp	.+22     	; 0x35e <dtoa_prf+0x124>
 348:	f6 01       	movw	r30, r12
 34a:	82 2f       	mov	r24, r18
 34c:	30 e2       	ldi	r19, 0x20	; 32
 34e:	88 23       	and	r24, r24
 350:	19 f0       	breq	.+6      	; 0x358 <dtoa_prf+0x11e>
 352:	31 93       	st	Z+, r19
 354:	81 50       	subi	r24, 0x01	; 1
 356:	fb cf       	rjmp	.-10     	; 0x34e <dtoa_prf+0x114>
 358:	c2 0e       	add	r12, r18
 35a:	d1 1c       	adc	r13, r1
 35c:	20 e0       	ldi	r18, 0x00	; 0
 35e:	99 23       	and	r25, r25
 360:	29 f0       	breq	.+10     	; 0x36c <dtoa_prf+0x132>
 362:	d6 01       	movw	r26, r12
 364:	9c 93       	st	X, r25
 366:	f6 01       	movw	r30, r12
 368:	31 96       	adiw	r30, 0x01	; 1
 36a:	6f 01       	movw	r12, r30
 36c:	c6 01       	movw	r24, r12
 36e:	03 96       	adiw	r24, 0x03	; 3
 370:	e2 fe       	sbrs	r14, 2
 372:	0b c0       	rjmp	.+22     	; 0x38a <dtoa_prf+0x150>
 374:	39 e4       	ldi	r19, 0x49	; 73
 376:	d6 01       	movw	r26, r12
 378:	3c 93       	st	X, r19
 37a:	3e e4       	ldi	r19, 0x4E	; 78
 37c:	11 96       	adiw	r26, 0x01	; 1
 37e:	3c 93       	st	X, r19
 380:	11 97       	sbiw	r26, 0x01	; 1
 382:	36 e4       	ldi	r19, 0x46	; 70
 384:	12 96       	adiw	r26, 0x02	; 2
 386:	3c 93       	st	X, r19
 388:	07 c0       	rjmp	.+14     	; 0x398 <dtoa_prf+0x15e>
 38a:	39 e6       	ldi	r19, 0x69	; 105
 38c:	f6 01       	movw	r30, r12
 38e:	30 83       	st	Z, r19
 390:	3e e6       	ldi	r19, 0x6E	; 110
 392:	31 83       	std	Z+1, r19	; 0x01
 394:	36 e6       	ldi	r19, 0x66	; 102
 396:	32 83       	std	Z+2, r19	; 0x02
 398:	fc 01       	movw	r30, r24
 39a:	32 2f       	mov	r19, r18
 39c:	40 e2       	ldi	r20, 0x20	; 32
 39e:	33 23       	and	r19, r19
 3a0:	19 f0       	breq	.+6      	; 0x3a8 <dtoa_prf+0x16e>
 3a2:	41 93       	st	Z+, r20
 3a4:	31 50       	subi	r19, 0x01	; 1
 3a6:	fb cf       	rjmp	.-10     	; 0x39e <dtoa_prf+0x164>
 3a8:	fc 01       	movw	r30, r24
 3aa:	e2 0f       	add	r30, r18
 3ac:	f1 1d       	adc	r31, r1
 3ae:	10 82       	st	Z, r1
 3b0:	8e ef       	ldi	r24, 0xFE	; 254
 3b2:	9f ef       	ldi	r25, 0xFF	; 255
 3b4:	a6 c0       	rjmp	.+332    	; 0x502 <__LOCK_REGION_LENGTH__+0x102>
 3b6:	21 e0       	ldi	r18, 0x01	; 1
 3b8:	30 e0       	ldi	r19, 0x00	; 0
 3ba:	91 11       	cpse	r25, r1
 3bc:	02 c0       	rjmp	.+4      	; 0x3c2 <dtoa_prf+0x188>
 3be:	20 e0       	ldi	r18, 0x00	; 0
 3c0:	30 e0       	ldi	r19, 0x00	; 0
 3c2:	16 16       	cp	r1, r22
 3c4:	17 06       	cpc	r1, r23
 3c6:	1c f4       	brge	.+6      	; 0x3ce <dtoa_prf+0x194>
 3c8:	fb 01       	movw	r30, r22
 3ca:	31 96       	adiw	r30, 0x01	; 1
 3cc:	02 c0       	rjmp	.+4      	; 0x3d2 <dtoa_prf+0x198>
 3ce:	e1 e0       	ldi	r30, 0x01	; 1
 3d0:	f0 e0       	ldi	r31, 0x00	; 0
 3d2:	2e 0f       	add	r18, r30
 3d4:	3f 1f       	adc	r19, r31
 3d6:	bb 20       	and	r11, r11
 3d8:	21 f0       	breq	.+8      	; 0x3e2 <dtoa_prf+0x1a8>
 3da:	eb 2d       	mov	r30, r11
 3dc:	f0 e0       	ldi	r31, 0x00	; 0
 3de:	31 96       	adiw	r30, 0x01	; 1
 3e0:	02 c0       	rjmp	.+4      	; 0x3e6 <dtoa_prf+0x1ac>
 3e2:	e0 e0       	ldi	r30, 0x00	; 0
 3e4:	f0 e0       	ldi	r31, 0x00	; 0
 3e6:	2e 0f       	add	r18, r30
 3e8:	3f 1f       	adc	r19, r31
 3ea:	e1 2f       	mov	r30, r17
 3ec:	f0 e0       	ldi	r31, 0x00	; 0
 3ee:	2e 17       	cp	r18, r30
 3f0:	3f 07       	cpc	r19, r31
 3f2:	1c f4       	brge	.+6      	; 0x3fa <dtoa_prf+0x1c0>
 3f4:	12 1b       	sub	r17, r18
 3f6:	21 2f       	mov	r18, r17
 3f8:	01 c0       	rjmp	.+2      	; 0x3fc <dtoa_prf+0x1c2>
 3fa:	20 e0       	ldi	r18, 0x00	; 0
 3fc:	8e 2d       	mov	r24, r14
 3fe:	88 71       	andi	r24, 0x18	; 24
 400:	59 f4       	brne	.+22     	; 0x418 <__LOCK_REGION_LENGTH__+0x18>
 402:	f6 01       	movw	r30, r12
 404:	82 2f       	mov	r24, r18
 406:	30 e2       	ldi	r19, 0x20	; 32
 408:	88 23       	and	r24, r24
 40a:	19 f0       	breq	.+6      	; 0x412 <__LOCK_REGION_LENGTH__+0x12>
 40c:	31 93       	st	Z+, r19
 40e:	81 50       	subi	r24, 0x01	; 1
 410:	fb cf       	rjmp	.-10     	; 0x408 <__LOCK_REGION_LENGTH__+0x8>
 412:	c2 0e       	add	r12, r18
 414:	d1 1c       	adc	r13, r1
 416:	20 e0       	ldi	r18, 0x00	; 0
 418:	99 23       	and	r25, r25
 41a:	29 f0       	breq	.+10     	; 0x426 <__LOCK_REGION_LENGTH__+0x26>
 41c:	d6 01       	movw	r26, r12
 41e:	9c 93       	st	X, r25
 420:	f6 01       	movw	r30, r12
 422:	31 96       	adiw	r30, 0x01	; 1
 424:	6f 01       	movw	r12, r30
 426:	51 11       	cpse	r21, r1
 428:	0b c0       	rjmp	.+22     	; 0x440 <__LOCK_REGION_LENGTH__+0x40>
 42a:	f6 01       	movw	r30, r12
 42c:	82 2f       	mov	r24, r18
 42e:	90 e3       	ldi	r25, 0x30	; 48
 430:	88 23       	and	r24, r24
 432:	19 f0       	breq	.+6      	; 0x43a <__LOCK_REGION_LENGTH__+0x3a>
 434:	91 93       	st	Z+, r25
 436:	81 50       	subi	r24, 0x01	; 1
 438:	fb cf       	rjmp	.-10     	; 0x430 <__LOCK_REGION_LENGTH__+0x30>
 43a:	c2 0e       	add	r12, r18
 43c:	d1 1c       	adc	r13, r1
 43e:	20 e0       	ldi	r18, 0x00	; 0
 440:	0f 2d       	mov	r16, r15
 442:	06 0f       	add	r16, r22
 444:	9a 81       	ldd	r25, Y+2	; 0x02
 446:	34 2f       	mov	r19, r20
 448:	30 71       	andi	r19, 0x10	; 16
 44a:	44 ff       	sbrs	r20, 4
 44c:	03 c0       	rjmp	.+6      	; 0x454 <__LOCK_REGION_LENGTH__+0x54>
 44e:	91 33       	cpi	r25, 0x31	; 49
 450:	09 f4       	brne	.+2      	; 0x454 <__LOCK_REGION_LENGTH__+0x54>
 452:	01 50       	subi	r16, 0x01	; 1
 454:	10 16       	cp	r1, r16
 456:	24 f4       	brge	.+8      	; 0x460 <__LOCK_REGION_LENGTH__+0x60>
 458:	09 30       	cpi	r16, 0x09	; 9
 45a:	18 f0       	brcs	.+6      	; 0x462 <__LOCK_REGION_LENGTH__+0x62>
 45c:	08 e0       	ldi	r16, 0x08	; 8
 45e:	01 c0       	rjmp	.+2      	; 0x462 <__LOCK_REGION_LENGTH__+0x62>
 460:	01 e0       	ldi	r16, 0x01	; 1
 462:	ab 01       	movw	r20, r22
 464:	77 ff       	sbrs	r23, 7
 466:	02 c0       	rjmp	.+4      	; 0x46c <__LOCK_REGION_LENGTH__+0x6c>
 468:	40 e0       	ldi	r20, 0x00	; 0
 46a:	50 e0       	ldi	r21, 0x00	; 0
 46c:	fb 01       	movw	r30, r22
 46e:	e4 1b       	sub	r30, r20
 470:	f5 0b       	sbc	r31, r21
 472:	a1 e0       	ldi	r26, 0x01	; 1
 474:	b0 e0       	ldi	r27, 0x00	; 0
 476:	ac 0f       	add	r26, r28
 478:	bd 1f       	adc	r27, r29
 47a:	ea 0f       	add	r30, r26
 47c:	fb 1f       	adc	r31, r27
 47e:	8e e2       	ldi	r24, 0x2E	; 46
 480:	a8 2e       	mov	r10, r24
 482:	4b 01       	movw	r8, r22
 484:	80 1a       	sub	r8, r16
 486:	91 08       	sbc	r9, r1
 488:	0b 2d       	mov	r16, r11
 48a:	10 e0       	ldi	r17, 0x00	; 0
 48c:	11 95       	neg	r17
 48e:	01 95       	neg	r16
 490:	11 09       	sbc	r17, r1
 492:	4f 3f       	cpi	r20, 0xFF	; 255
 494:	bf ef       	ldi	r27, 0xFF	; 255
 496:	5b 07       	cpc	r21, r27
 498:	21 f4       	brne	.+8      	; 0x4a2 <__LOCK_REGION_LENGTH__+0xa2>
 49a:	d6 01       	movw	r26, r12
 49c:	ac 92       	st	X, r10
 49e:	11 96       	adiw	r26, 0x01	; 1
 4a0:	6d 01       	movw	r12, r26
 4a2:	64 17       	cp	r22, r20
 4a4:	75 07       	cpc	r23, r21
 4a6:	2c f0       	brlt	.+10     	; 0x4b2 <__LOCK_REGION_LENGTH__+0xb2>
 4a8:	84 16       	cp	r8, r20
 4aa:	95 06       	cpc	r9, r21
 4ac:	14 f4       	brge	.+4      	; 0x4b2 <__LOCK_REGION_LENGTH__+0xb2>
 4ae:	81 81       	ldd	r24, Z+1	; 0x01
 4b0:	01 c0       	rjmp	.+2      	; 0x4b4 <__LOCK_REGION_LENGTH__+0xb4>
 4b2:	80 e3       	ldi	r24, 0x30	; 48
 4b4:	41 50       	subi	r20, 0x01	; 1
 4b6:	51 09       	sbc	r21, r1
 4b8:	31 96       	adiw	r30, 0x01	; 1
 4ba:	d6 01       	movw	r26, r12
 4bc:	11 96       	adiw	r26, 0x01	; 1
 4be:	7d 01       	movw	r14, r26
 4c0:	40 17       	cp	r20, r16
 4c2:	51 07       	cpc	r21, r17
 4c4:	24 f0       	brlt	.+8      	; 0x4ce <__LOCK_REGION_LENGTH__+0xce>
 4c6:	d6 01       	movw	r26, r12
 4c8:	8c 93       	st	X, r24
 4ca:	67 01       	movw	r12, r14
 4cc:	e2 cf       	rjmp	.-60     	; 0x492 <__LOCK_REGION_LENGTH__+0x92>
 4ce:	64 17       	cp	r22, r20
 4d0:	75 07       	cpc	r23, r21
 4d2:	39 f4       	brne	.+14     	; 0x4e2 <__LOCK_REGION_LENGTH__+0xe2>
 4d4:	96 33       	cpi	r25, 0x36	; 54
 4d6:	20 f4       	brcc	.+8      	; 0x4e0 <__LOCK_REGION_LENGTH__+0xe0>
 4d8:	95 33       	cpi	r25, 0x35	; 53
 4da:	19 f4       	brne	.+6      	; 0x4e2 <__LOCK_REGION_LENGTH__+0xe2>
 4dc:	31 11       	cpse	r19, r1
 4de:	01 c0       	rjmp	.+2      	; 0x4e2 <__LOCK_REGION_LENGTH__+0xe2>
 4e0:	81 e3       	ldi	r24, 0x31	; 49
 4e2:	f6 01       	movw	r30, r12
 4e4:	80 83       	st	Z, r24
 4e6:	f7 01       	movw	r30, r14
 4e8:	82 2f       	mov	r24, r18
 4ea:	90 e2       	ldi	r25, 0x20	; 32
 4ec:	88 23       	and	r24, r24
 4ee:	19 f0       	breq	.+6      	; 0x4f6 <__LOCK_REGION_LENGTH__+0xf6>
 4f0:	91 93       	st	Z+, r25
 4f2:	81 50       	subi	r24, 0x01	; 1
 4f4:	fb cf       	rjmp	.-10     	; 0x4ec <__LOCK_REGION_LENGTH__+0xec>
 4f6:	f7 01       	movw	r30, r14
 4f8:	e2 0f       	add	r30, r18
 4fa:	f1 1d       	adc	r31, r1
 4fc:	10 82       	st	Z, r1
 4fe:	80 e0       	ldi	r24, 0x00	; 0
 500:	90 e0       	ldi	r25, 0x00	; 0
 502:	29 96       	adiw	r28, 0x09	; 9
 504:	0f b6       	in	r0, 0x3f	; 63
 506:	f8 94       	cli
 508:	de bf       	out	0x3e, r29	; 62
 50a:	0f be       	out	0x3f, r0	; 63
 50c:	cd bf       	out	0x3d, r28	; 61
 50e:	df 91       	pop	r29
 510:	cf 91       	pop	r28
 512:	1f 91       	pop	r17
 514:	0f 91       	pop	r16
 516:	ff 90       	pop	r15
 518:	ef 90       	pop	r14
 51a:	df 90       	pop	r13
 51c:	cf 90       	pop	r12
 51e:	bf 90       	pop	r11
 520:	af 90       	pop	r10
 522:	9f 90       	pop	r9
 524:	8f 90       	pop	r8
 526:	08 95       	ret

Disassembly of section .text.avrlibc:

000006dc <__ftoa_engine>:
 6dc:	28 30       	cpi	r18, 0x08	; 8
 6de:	08 f0       	brcs	.+2      	; 0x6e2 <__ftoa_engine+0x6>
 6e0:	27 e0       	ldi	r18, 0x07	; 7
 6e2:	33 27       	eor	r19, r19
 6e4:	da 01       	movw	r26, r20
 6e6:	99 0f       	add	r25, r25
 6e8:	31 1d       	adc	r19, r1
 6ea:	87 fd       	sbrc	r24, 7
 6ec:	91 60       	ori	r25, 0x01	; 1
 6ee:	00 96       	adiw	r24, 0x00	; 0
 6f0:	61 05       	cpc	r22, r1
 6f2:	71 05       	cpc	r23, r1
 6f4:	39 f4       	brne	.+14     	; 0x704 <__ftoa_engine+0x28>
 6f6:	32 60       	ori	r19, 0x02	; 2
 6f8:	2e 5f       	subi	r18, 0xFE	; 254
 6fa:	3d 93       	st	X+, r19
 6fc:	30 e3       	ldi	r19, 0x30	; 48
 6fe:	2a 95       	dec	r18
 700:	e1 f7       	brne	.-8      	; 0x6fa <__ftoa_engine+0x1e>
 702:	08 95       	ret
 704:	9f 3f       	cpi	r25, 0xFF	; 255
 706:	30 f0       	brcs	.+12     	; 0x714 <__ftoa_engine+0x38>
 708:	80 38       	cpi	r24, 0x80	; 128
 70a:	71 05       	cpc	r23, r1
 70c:	61 05       	cpc	r22, r1
 70e:	09 f0       	breq	.+2      	; 0x712 <__ftoa_engine+0x36>
 710:	3c 5f       	subi	r19, 0xFC	; 252
 712:	3c 5f       	subi	r19, 0xFC	; 252
 714:	3d 93       	st	X+, r19
 716:	91 30       	cpi	r25, 0x01	; 1
 718:	08 f0       	brcs	.+2      	; 0x71c <__ftoa_engine+0x40>
 71a:	80 68       	ori	r24, 0x80	; 128
 71c:	91 1d       	adc	r25, r1
 71e:	df 93       	push	r29
 720:	cf 93       	push	r28
 722:	1f 93       	push	r17
 724:	0f 93       	push	r16
 726:	ff 92       	push	r15
 728:	ef 92       	push	r14
 72a:	19 2f       	mov	r17, r25
 72c:	98 7f       	andi	r25, 0xF8	; 248
 72e:	96 95       	lsr	r25
 730:	e9 2f       	mov	r30, r25
 732:	96 95       	lsr	r25
 734:	96 95       	lsr	r25
 736:	e9 0f       	add	r30, r25
 738:	ff 27       	eor	r31, r31
 73a:	e0 5e       	subi	r30, 0xE0	; 224
 73c:	fe 4f       	sbci	r31, 0xFE	; 254
 73e:	99 27       	eor	r25, r25
 740:	33 27       	eor	r19, r19
 742:	ee 24       	eor	r14, r14
 744:	ff 24       	eor	r15, r15
 746:	a7 01       	movw	r20, r14
 748:	e7 01       	movw	r28, r14
 74a:	05 90       	lpm	r0, Z+
 74c:	08 94       	sec
 74e:	07 94       	ror	r0
 750:	28 f4       	brcc	.+10     	; 0x75c <__ftoa_engine+0x80>
 752:	36 0f       	add	r19, r22
 754:	e7 1e       	adc	r14, r23
 756:	f8 1e       	adc	r15, r24
 758:	49 1f       	adc	r20, r25
 75a:	51 1d       	adc	r21, r1
 75c:	66 0f       	add	r22, r22
 75e:	77 1f       	adc	r23, r23
 760:	88 1f       	adc	r24, r24
 762:	99 1f       	adc	r25, r25
 764:	06 94       	lsr	r0
 766:	a1 f7       	brne	.-24     	; 0x750 <__ftoa_engine+0x74>
 768:	05 90       	lpm	r0, Z+
 76a:	07 94       	ror	r0
 76c:	28 f4       	brcc	.+10     	; 0x778 <__ftoa_engine+0x9c>
 76e:	e7 0e       	add	r14, r23
 770:	f8 1e       	adc	r15, r24
 772:	49 1f       	adc	r20, r25
 774:	56 1f       	adc	r21, r22
 776:	c1 1d       	adc	r28, r1
 778:	77 0f       	add	r23, r23
 77a:	88 1f       	adc	r24, r24
 77c:	99 1f       	adc	r25, r25
 77e:	66 1f       	adc	r22, r22
 780:	06 94       	lsr	r0
 782:	a1 f7       	brne	.-24     	; 0x76c <__ftoa_engine+0x90>
 784:	05 90       	lpm	r0, Z+
 786:	07 94       	ror	r0
 788:	28 f4       	brcc	.+10     	; 0x794 <__ftoa_engine+0xb8>
 78a:	f8 0e       	add	r15, r24
 78c:	49 1f       	adc	r20, r25
 78e:	56 1f       	adc	r21, r22
 790:	c7 1f       	adc	r28, r23
 792:	d1 1d       	adc	r29, r1
 794:	88 0f       	add	r24, r24
 796:	99 1f       	adc	r25, r25
 798:	66 1f       	adc	r22, r22
 79a:	77 1f       	adc	r23, r23
 79c:	06 94       	lsr	r0
 79e:	a1 f7       	brne	.-24     	; 0x788 <__ftoa_engine+0xac>
 7a0:	05 90       	lpm	r0, Z+
 7a2:	07 94       	ror	r0
 7a4:	20 f4       	brcc	.+8      	; 0x7ae <__ftoa_engine+0xd2>
 7a6:	49 0f       	add	r20, r25
 7a8:	56 1f       	adc	r21, r22
 7aa:	c7 1f       	adc	r28, r23
 7ac:	d8 1f       	adc	r29, r24
 7ae:	99 0f       	add	r25, r25
 7b0:	66 1f       	adc	r22, r22
 7b2:	77 1f       	adc	r23, r23
 7b4:	88 1f       	adc	r24, r24
 7b6:	06 94       	lsr	r0
 7b8:	a9 f7       	brne	.-22     	; 0x7a4 <__ftoa_engine+0xc8>
 7ba:	84 91       	lpm	r24, Z
 7bc:	10 95       	com	r17
 7be:	17 70       	andi	r17, 0x07	; 7
 7c0:	41 f0       	breq	.+16     	; 0x7d2 <__ftoa_engine+0xf6>
 7c2:	d6 95       	lsr	r29
 7c4:	c7 95       	ror	r28
 7c6:	57 95       	ror	r21
 7c8:	47 95       	ror	r20
 7ca:	f7 94       	ror	r15
 7cc:	e7 94       	ror	r14
 7ce:	1a 95       	dec	r17
 7d0:	c1 f7       	brne	.-16     	; 0x7c2 <__ftoa_engine+0xe6>
 7d2:	e6 ec       	ldi	r30, 0xC6	; 198
 7d4:	f0 e0       	ldi	r31, 0x00	; 0
 7d6:	68 94       	set
 7d8:	15 90       	lpm	r1, Z+
 7da:	15 91       	lpm	r17, Z+
 7dc:	35 91       	lpm	r19, Z+
 7de:	65 91       	lpm	r22, Z+
 7e0:	95 91       	lpm	r25, Z+
 7e2:	05 90       	lpm	r0, Z+
 7e4:	7f e2       	ldi	r23, 0x2F	; 47
 7e6:	73 95       	inc	r23
 7e8:	e1 18       	sub	r14, r1
 7ea:	f1 0a       	sbc	r15, r17
 7ec:	43 0b       	sbc	r20, r19
 7ee:	56 0b       	sbc	r21, r22
 7f0:	c9 0b       	sbc	r28, r25
 7f2:	d0 09       	sbc	r29, r0
 7f4:	c0 f7       	brcc	.-16     	; 0x7e6 <__ftoa_engine+0x10a>
 7f6:	e1 0c       	add	r14, r1
 7f8:	f1 1e       	adc	r15, r17
 7fa:	43 1f       	adc	r20, r19
 7fc:	56 1f       	adc	r21, r22
 7fe:	c9 1f       	adc	r28, r25
 800:	d0 1d       	adc	r29, r0
 802:	7e f4       	brtc	.+30     	; 0x822 <__ftoa_engine+0x146>
 804:	70 33       	cpi	r23, 0x30	; 48
 806:	11 f4       	brne	.+4      	; 0x80c <__ftoa_engine+0x130>
 808:	8a 95       	dec	r24
 80a:	e6 cf       	rjmp	.-52     	; 0x7d8 <__ftoa_engine+0xfc>
 80c:	e8 94       	clt
 80e:	01 50       	subi	r16, 0x01	; 1
 810:	30 f0       	brcs	.+12     	; 0x81e <__ftoa_engine+0x142>
 812:	08 0f       	add	r16, r24
 814:	0a f4       	brpl	.+2      	; 0x818 <__ftoa_engine+0x13c>
 816:	00 27       	eor	r16, r16
 818:	02 17       	cp	r16, r18
 81a:	08 f4       	brcc	.+2      	; 0x81e <__ftoa_engine+0x142>
 81c:	20 2f       	mov	r18, r16
 81e:	23 95       	inc	r18
 820:	02 2f       	mov	r16, r18
 822:	7a 33       	cpi	r23, 0x3A	; 58
 824:	28 f0       	brcs	.+10     	; 0x830 <__ftoa_engine+0x154>
 826:	79 e3       	ldi	r23, 0x39	; 57
 828:	7d 93       	st	X+, r23
 82a:	2a 95       	dec	r18
 82c:	e9 f7       	brne	.-6      	; 0x828 <__ftoa_engine+0x14c>
 82e:	10 c0       	rjmp	.+32     	; 0x850 <__ftoa_engine+0x174>
 830:	7d 93       	st	X+, r23
 832:	2a 95       	dec	r18
 834:	89 f6       	brne	.-94     	; 0x7d8 <__ftoa_engine+0xfc>
 836:	06 94       	lsr	r0
 838:	97 95       	ror	r25
 83a:	67 95       	ror	r22
 83c:	37 95       	ror	r19
 83e:	17 95       	ror	r17
 840:	17 94       	ror	r1
 842:	e1 18       	sub	r14, r1
 844:	f1 0a       	sbc	r15, r17
 846:	43 0b       	sbc	r20, r19
 848:	56 0b       	sbc	r21, r22
 84a:	c9 0b       	sbc	r28, r25
 84c:	d0 09       	sbc	r29, r0
 84e:	98 f0       	brcs	.+38     	; 0x876 <__ftoa_engine+0x19a>
 850:	23 95       	inc	r18
 852:	7e 91       	ld	r23, -X
 854:	73 95       	inc	r23
 856:	7a 33       	cpi	r23, 0x3A	; 58
 858:	08 f0       	brcs	.+2      	; 0x85c <__ftoa_engine+0x180>
 85a:	70 e3       	ldi	r23, 0x30	; 48
 85c:	7c 93       	st	X, r23
 85e:	20 13       	cpse	r18, r16
 860:	b8 f7       	brcc	.-18     	; 0x850 <__ftoa_engine+0x174>
 862:	7e 91       	ld	r23, -X
 864:	70 61       	ori	r23, 0x10	; 16
 866:	7d 93       	st	X+, r23
 868:	30 f0       	brcs	.+12     	; 0x876 <__ftoa_engine+0x19a>
 86a:	83 95       	inc	r24
 86c:	71 e3       	ldi	r23, 0x31	; 49
 86e:	7d 93       	st	X+, r23
 870:	70 e3       	ldi	r23, 0x30	; 48
 872:	2a 95       	dec	r18
 874:	e1 f7       	brne	.-8      	; 0x86e <__ftoa_engine+0x192>
 876:	11 24       	eor	r1, r1
 878:	ef 90       	pop	r14
 87a:	ff 90       	pop	r15
 87c:	0f 91       	pop	r16
 87e:	1f 91       	pop	r17
 880:	cf 91       	pop	r28
 882:	df 91       	pop	r29
 884:	99 27       	eor	r25, r25
 886:	87 fd       	sbrc	r24, 7
 888:	90 95       	com	r25
 88a:	08 95       	ret

Disassembly of section .text.libgcc:

00000ea8 <__xload_1>:
 ea8:	57 fd       	sbrc	r21, 7
 eaa:	03 c0       	rjmp	.+6      	; 0xeb2 <__xload_1+0xa>
 eac:	5b bf       	out	0x3b, r21	; 59
 eae:	67 91       	elpm	r22, Z+
 eb0:	08 95       	ret
 eb2:	60 81       	ld	r22, Z
 eb4:	08 95       	ret
